
obj/kern/kernel:     file format elf64-x86-64


Disassembly of section .bootstrap:

0000000000100000 <_head64>:
// VMCALL to the VMM to get a multiboot map.
    movl $VMX_VMCALL_MBMAP, %eax
    vmcall
#endif
	
    movl $multiboot_info, %eax
  100000:	b8 00 70 10 00       	mov    $0x107000,%eax
    movl %ebx, (%eax)
  100005:	89 18                	mov    %ebx,(%rax)

#ifndef VMM_GUEST
    movw $0x1234,0x472			# warm boot
  100007:	66 c7 05 72 04 00 00 	movw   $0x1234,0x472(%rip)        # 100482 <verify_cpu_no_longmode+0x36f>
  10000e:	34 12 
#endif
	
# Reset the stack pointer in case we didn't come from the loader
    movl $0x7c00,%esp
  100010:	bc 00 7c 00 00       	mov    $0x7c00,%esp

    call verify_cpu   #check if CPU supports long mode
  100015:	e8 cc 00 00 00       	callq  1000e6 <verify_cpu>
#ifndef VMM_GUEST
    movl $CR4_PAE,%eax
  10001a:	b8 20 00 00 00       	mov    $0x20,%eax
#else
    movl $(CR4_PAE|CR4_VMXE),%eax
#endif
    movl %eax,%cr4
  10001f:	0f 22 e0             	mov    %rax,%cr4

# build an early boot pml4 at physical address pml4phys 

    #initializing the page tables
    movl $pml4,%edi
  100022:	bf 00 20 10 00       	mov    $0x102000,%edi
    xorl %eax,%eax
  100027:	31 c0                	xor    %eax,%eax
    movl $((4096/4)*5),%ecx  # moving these many words to the 6 pages with 4 second level pages + 1 3rd level + 1 4th level pages 
  100029:	b9 00 14 00 00       	mov    $0x1400,%ecx
    rep stosl
  10002e:	f3 ab                	rep stos %eax,%es:(%rdi)
    # creating a 4G boot page table
    # setting the 4th level page table only the second entry needed (PML4)
    movl $pml4,%eax
  100030:	b8 00 20 10 00       	mov    $0x102000,%eax
    movl $pdpt1, %ebx
  100035:	bb 00 30 10 00       	mov    $0x103000,%ebx
    orl $PTE_P,%ebx
  10003a:	83 cb 01             	or     $0x1,%ebx
    orl $PTE_W,%ebx
  10003d:	83 cb 02             	or     $0x2,%ebx
    movl %ebx,(%eax)
  100040:	89 18                	mov    %ebx,(%rax)

    movl $pdpt2, %ebx
  100042:	bb 00 40 10 00       	mov    $0x104000,%ebx
    orl $PTE_P,%ebx
  100047:	83 cb 01             	or     $0x1,%ebx
    orl $PTE_W,%ebx
  10004a:	83 cb 02             	or     $0x2,%ebx
    movl %ebx,0x8(%eax)
  10004d:	89 58 08             	mov    %ebx,0x8(%rax)

    # setting the 3rd level page table (PDPE)
    # 4 entries (counter in ecx), point to the next four physical pages (pgdirs)
    # pgdirs in 0xa0000--0xd000
    movl $pdpt1,%edi
  100050:	bf 00 30 10 00       	mov    $0x103000,%edi
    movl $pde1,%ebx
  100055:	bb 00 50 10 00       	mov    $0x105000,%ebx
    orl $PTE_P,%ebx
  10005a:	83 cb 01             	or     $0x1,%ebx
    orl $PTE_W,%ebx
  10005d:	83 cb 02             	or     $0x2,%ebx
    movl %ebx,(%edi)
  100060:	89 1f                	mov    %ebx,(%rdi)

    movl $pdpt2,%edi
  100062:	bf 00 40 10 00       	mov    $0x104000,%edi
    movl $pde2,%ebx
  100067:	bb 00 60 10 00       	mov    $0x106000,%ebx
    orl $PTE_P,%ebx
  10006c:	83 cb 01             	or     $0x1,%ebx
    orl $PTE_W,%ebx
  10006f:	83 cb 02             	or     $0x2,%ebx
    movl %ebx,(%edi)
  100072:	89 1f                	mov    %ebx,(%rdi)
    
    # setting the pgdir so that the LA=PA
    # mapping first 1G of mem at KERNBASE
    movl $128,%ecx
  100074:	b9 80 00 00 00       	mov    $0x80,%ecx
    # Start at the end and work backwards
    #leal (pml4 + 5*0x1000 - 0x8),%edi
    movl $pde1,%edi
  100079:	bf 00 50 10 00       	mov    $0x105000,%edi
    movl $pde2,%ebx
  10007e:	bb 00 60 10 00       	mov    $0x106000,%ebx
    #64th entry - 0x8004000000
    addl $256,%ebx 
  100083:	81 c3 00 01 00 00    	add    $0x100,%ebx
    # PTE_P|PTE_W|PTE_MBZ
    movl $0x00000183,%eax
  100089:	b8 83 01 00 00       	mov    $0x183,%eax
  1:
     movl %eax,(%edi)
  10008e:	89 07                	mov    %eax,(%rdi)
     movl %eax,(%ebx)
  100090:	89 03                	mov    %eax,(%rbx)
     addl $0x8,%edi
  100092:	83 c7 08             	add    $0x8,%edi
     addl $0x8,%ebx
  100095:	83 c3 08             	add    $0x8,%ebx
     addl $0x00200000,%eax
  100098:	05 00 00 20 00       	add    $0x200000,%eax
     subl $1,%ecx
  10009d:	83 e9 01             	sub    $0x1,%ecx
     cmp $0x0,%ecx
  1000a0:	83 f9 00             	cmp    $0x0,%ecx
     jne 1b
  1000a3:	75 e9                	jne    10008e <_head64+0x8e>
 /*    subl $1,%ecx */
 /*    cmp $0x0,%ecx */
 /*    jne 1b */

    # set the cr3 register
    movl $pml4,%eax
  1000a5:	b8 00 20 10 00       	mov    $0x102000,%eax
    movl %eax, %cr3
  1000aa:	0f 22 d8             	mov    %rax,%cr3

	
    # enable the long mode in MSR
    movl $EFER_MSR,%ecx
  1000ad:	b9 80 00 00 c0       	mov    $0xc0000080,%ecx
    rdmsr
  1000b2:	0f 32                	rdmsr  
    btsl $EFER_LME,%eax
  1000b4:	0f ba e8 08          	bts    $0x8,%eax
    wrmsr
  1000b8:	0f 30                	wrmsr  
    
    # enable paging 
    movl %cr0,%eax
  1000ba:	0f 20 c0             	mov    %cr0,%rax
    orl $CR0_PE,%eax
  1000bd:	83 c8 01             	or     $0x1,%eax
    orl $CR0_PG,%eax
  1000c0:	0d 00 00 00 80       	or     $0x80000000,%eax
    orl $CR0_AM,%eax
  1000c5:	0d 00 00 04 00       	or     $0x40000,%eax
    orl $CR0_WP,%eax
  1000ca:	0d 00 00 01 00       	or     $0x10000,%eax
    orl $CR0_MP,%eax
  1000cf:	83 c8 02             	or     $0x2,%eax
    movl %eax,%cr0
  1000d2:	0f 22 c0             	mov    %rax,%cr0
    #jump to long mode with CS=0 and

    movl $gdtdesc_64,%eax
  1000d5:	b8 18 10 10 00       	mov    $0x101018,%eax
    lgdt (%eax)
  1000da:	0f 01 10             	lgdt   (%rax)
    pushl $0x8
  1000dd:	6a 08                	pushq  $0x8
    movl $_start,%eax
  1000df:	b8 0c 00 20 00       	mov    $0x20000c,%eax
    pushl %eax
  1000e4:	50                   	push   %rax

00000000001000e5 <jumpto_longmode>:
    
    .globl jumpto_longmode
    .type jumpto_longmode,@function
jumpto_longmode:
    lret
  1000e5:	cb                   	lret   

00000000001000e6 <verify_cpu>:
/*     movabs $_back_from_head64, %rax */
/*     pushq %rax */
/*     lretq */

verify_cpu:
    pushfl                   # get eflags in eax -- standardard way to check for cpuid
  1000e6:	9c                   	pushfq 
    popl %eax
  1000e7:	58                   	pop    %rax
    movl %eax,%ecx
  1000e8:	89 c1                	mov    %eax,%ecx
    xorl $0x200000, %eax
  1000ea:	35 00 00 20 00       	xor    $0x200000,%eax
    pushl %eax
  1000ef:	50                   	push   %rax
    popfl
  1000f0:	9d                   	popfq  
    pushfl
  1000f1:	9c                   	pushfq 
    popl %eax
  1000f2:	58                   	pop    %rax
    cmpl %eax,%ebx
  1000f3:	39 c3                	cmp    %eax,%ebx
    jz verify_cpu_no_longmode   # no cpuid -- no long mode
  1000f5:	74 1c                	je     100113 <verify_cpu_no_longmode>

    movl $0x0,%eax              # see if cpuid 1 is implemented
  1000f7:	b8 00 00 00 00       	mov    $0x0,%eax
    cpuid
  1000fc:	0f a2                	cpuid  
    cmpl $0x1,%eax
  1000fe:	83 f8 01             	cmp    $0x1,%eax
    jb verify_cpu_no_longmode    # cpuid 1 is not implemented
  100101:	72 10                	jb     100113 <verify_cpu_no_longmode>


    mov $0x80000001, %eax
  100103:	b8 01 00 00 80       	mov    $0x80000001,%eax
    cpuid                 
  100108:	0f a2                	cpuid  
    test $(1 << 29),%edx                 #Test if the LM-bit, is set or not.
  10010a:	f7 c2 00 00 00 20    	test   $0x20000000,%edx
    jz verify_cpu_no_longmode
  100110:	74 01                	je     100113 <verify_cpu_no_longmode>

    ret
  100112:	c3                   	retq   

0000000000100113 <verify_cpu_no_longmode>:

verify_cpu_no_longmode:
    jmp verify_cpu_no_longmode
  100113:	eb fe                	jmp    100113 <verify_cpu_no_longmode>
  100115:	66 2e 0f 1f 84 00 00 	nopw   %cs:0x0(%rax,%rax,1)
  10011c:	00 00 00 
  10011f:	66 2e 0f 1f 84 00 00 	nopw   %cs:0x0(%rax,%rax,1)
  100126:	00 00 00 
  100129:	66 2e 0f 1f 84 00 00 	nopw   %cs:0x0(%rax,%rax,1)
  100130:	00 00 00 
  100133:	66 2e 0f 1f 84 00 00 	nopw   %cs:0x0(%rax,%rax,1)
  10013a:	00 00 00 
  10013d:	66 2e 0f 1f 84 00 00 	nopw   %cs:0x0(%rax,%rax,1)
  100144:	00 00 00 
  100147:	66 2e 0f 1f 84 00 00 	nopw   %cs:0x0(%rax,%rax,1)
  10014e:	00 00 00 
  100151:	66 2e 0f 1f 84 00 00 	nopw   %cs:0x0(%rax,%rax,1)
  100158:	00 00 00 
  10015b:	66 2e 0f 1f 84 00 00 	nopw   %cs:0x0(%rax,%rax,1)
  100162:	00 00 00 
  100165:	66 2e 0f 1f 84 00 00 	nopw   %cs:0x0(%rax,%rax,1)
  10016c:	00 00 00 
  10016f:	66 2e 0f 1f 84 00 00 	nopw   %cs:0x0(%rax,%rax,1)
  100176:	00 00 00 
  100179:	66 2e 0f 1f 84 00 00 	nopw   %cs:0x0(%rax,%rax,1)
  100180:	00 00 00 
  100183:	66 2e 0f 1f 84 00 00 	nopw   %cs:0x0(%rax,%rax,1)
  10018a:	00 00 00 
  10018d:	66 2e 0f 1f 84 00 00 	nopw   %cs:0x0(%rax,%rax,1)
  100194:	00 00 00 
  100197:	66 2e 0f 1f 84 00 00 	nopw   %cs:0x0(%rax,%rax,1)
  10019e:	00 00 00 
  1001a1:	66 2e 0f 1f 84 00 00 	nopw   %cs:0x0(%rax,%rax,1)
  1001a8:	00 00 00 
  1001ab:	66 2e 0f 1f 84 00 00 	nopw   %cs:0x0(%rax,%rax,1)
  1001b2:	00 00 00 
  1001b5:	66 2e 0f 1f 84 00 00 	nopw   %cs:0x0(%rax,%rax,1)
  1001bc:	00 00 00 
  1001bf:	66 2e 0f 1f 84 00 00 	nopw   %cs:0x0(%rax,%rax,1)
  1001c6:	00 00 00 
  1001c9:	66 2e 0f 1f 84 00 00 	nopw   %cs:0x0(%rax,%rax,1)
  1001d0:	00 00 00 
  1001d3:	66 2e 0f 1f 84 00 00 	nopw   %cs:0x0(%rax,%rax,1)
  1001da:	00 00 00 
  1001dd:	66 2e 0f 1f 84 00 00 	nopw   %cs:0x0(%rax,%rax,1)
  1001e4:	00 00 00 
  1001e7:	66 2e 0f 1f 84 00 00 	nopw   %cs:0x0(%rax,%rax,1)
  1001ee:	00 00 00 
  1001f1:	66 2e 0f 1f 84 00 00 	nopw   %cs:0x0(%rax,%rax,1)
  1001f8:	00 00 00 
  1001fb:	66 2e 0f 1f 84 00 00 	nopw   %cs:0x0(%rax,%rax,1)
  100202:	00 00 00 
  100205:	66 2e 0f 1f 84 00 00 	nopw   %cs:0x0(%rax,%rax,1)
  10020c:	00 00 00 
  10020f:	66 2e 0f 1f 84 00 00 	nopw   %cs:0x0(%rax,%rax,1)
  100216:	00 00 00 
  100219:	66 2e 0f 1f 84 00 00 	nopw   %cs:0x0(%rax,%rax,1)
  100220:	00 00 00 
  100223:	66 2e 0f 1f 84 00 00 	nopw   %cs:0x0(%rax,%rax,1)
  10022a:	00 00 00 
  10022d:	66 2e 0f 1f 84 00 00 	nopw   %cs:0x0(%rax,%rax,1)
  100234:	00 00 00 
  100237:	66 2e 0f 1f 84 00 00 	nopw   %cs:0x0(%rax,%rax,1)
  10023e:	00 00 00 
  100241:	66 2e 0f 1f 84 00 00 	nopw   %cs:0x0(%rax,%rax,1)
  100248:	00 00 00 
  10024b:	66 2e 0f 1f 84 00 00 	nopw   %cs:0x0(%rax,%rax,1)
  100252:	00 00 00 
  100255:	66 2e 0f 1f 84 00 00 	nopw   %cs:0x0(%rax,%rax,1)
  10025c:	00 00 00 
  10025f:	66 2e 0f 1f 84 00 00 	nopw   %cs:0x0(%rax,%rax,1)
  100266:	00 00 00 
  100269:	66 2e 0f 1f 84 00 00 	nopw   %cs:0x0(%rax,%rax,1)
  100270:	00 00 00 
  100273:	66 2e 0f 1f 84 00 00 	nopw   %cs:0x0(%rax,%rax,1)
  10027a:	00 00 00 
  10027d:	66 2e 0f 1f 84 00 00 	nopw   %cs:0x0(%rax,%rax,1)
  100284:	00 00 00 
  100287:	66 2e 0f 1f 84 00 00 	nopw   %cs:0x0(%rax,%rax,1)
  10028e:	00 00 00 
  100291:	66 2e 0f 1f 84 00 00 	nopw   %cs:0x0(%rax,%rax,1)
  100298:	00 00 00 
  10029b:	66 2e 0f 1f 84 00 00 	nopw   %cs:0x0(%rax,%rax,1)
  1002a2:	00 00 00 
  1002a5:	66 2e 0f 1f 84 00 00 	nopw   %cs:0x0(%rax,%rax,1)
  1002ac:	00 00 00 
  1002af:	66 2e 0f 1f 84 00 00 	nopw   %cs:0x0(%rax,%rax,1)
  1002b6:	00 00 00 
  1002b9:	66 2e 0f 1f 84 00 00 	nopw   %cs:0x0(%rax,%rax,1)
  1002c0:	00 00 00 
  1002c3:	66 2e 0f 1f 84 00 00 	nopw   %cs:0x0(%rax,%rax,1)
  1002ca:	00 00 00 
  1002cd:	66 2e 0f 1f 84 00 00 	nopw   %cs:0x0(%rax,%rax,1)
  1002d4:	00 00 00 
  1002d7:	66 2e 0f 1f 84 00 00 	nopw   %cs:0x0(%rax,%rax,1)
  1002de:	00 00 00 
  1002e1:	66 2e 0f 1f 84 00 00 	nopw   %cs:0x0(%rax,%rax,1)
  1002e8:	00 00 00 
  1002eb:	66 2e 0f 1f 84 00 00 	nopw   %cs:0x0(%rax,%rax,1)
  1002f2:	00 00 00 
  1002f5:	66 2e 0f 1f 84 00 00 	nopw   %cs:0x0(%rax,%rax,1)
  1002fc:	00 00 00 
  1002ff:	66 2e 0f 1f 84 00 00 	nopw   %cs:0x0(%rax,%rax,1)
  100306:	00 00 00 
  100309:	66 2e 0f 1f 84 00 00 	nopw   %cs:0x0(%rax,%rax,1)
  100310:	00 00 00 
  100313:	66 2e 0f 1f 84 00 00 	nopw   %cs:0x0(%rax,%rax,1)
  10031a:	00 00 00 
  10031d:	66 2e 0f 1f 84 00 00 	nopw   %cs:0x0(%rax,%rax,1)
  100324:	00 00 00 
  100327:	66 2e 0f 1f 84 00 00 	nopw   %cs:0x0(%rax,%rax,1)
  10032e:	00 00 00 
  100331:	66 2e 0f 1f 84 00 00 	nopw   %cs:0x0(%rax,%rax,1)
  100338:	00 00 00 
  10033b:	66 2e 0f 1f 84 00 00 	nopw   %cs:0x0(%rax,%rax,1)
  100342:	00 00 00 
  100345:	66 2e 0f 1f 84 00 00 	nopw   %cs:0x0(%rax,%rax,1)
  10034c:	00 00 00 
  10034f:	66 2e 0f 1f 84 00 00 	nopw   %cs:0x0(%rax,%rax,1)
  100356:	00 00 00 
  100359:	66 2e 0f 1f 84 00 00 	nopw   %cs:0x0(%rax,%rax,1)
  100360:	00 00 00 
  100363:	66 2e 0f 1f 84 00 00 	nopw   %cs:0x0(%rax,%rax,1)
  10036a:	00 00 00 
  10036d:	66 2e 0f 1f 84 00 00 	nopw   %cs:0x0(%rax,%rax,1)
  100374:	00 00 00 
  100377:	66 2e 0f 1f 84 00 00 	nopw   %cs:0x0(%rax,%rax,1)
  10037e:	00 00 00 
  100381:	66 2e 0f 1f 84 00 00 	nopw   %cs:0x0(%rax,%rax,1)
  100388:	00 00 00 
  10038b:	66 2e 0f 1f 84 00 00 	nopw   %cs:0x0(%rax,%rax,1)
  100392:	00 00 00 
  100395:	66 2e 0f 1f 84 00 00 	nopw   %cs:0x0(%rax,%rax,1)
  10039c:	00 00 00 
  10039f:	66 2e 0f 1f 84 00 00 	nopw   %cs:0x0(%rax,%rax,1)
  1003a6:	00 00 00 
  1003a9:	66 2e 0f 1f 84 00 00 	nopw   %cs:0x0(%rax,%rax,1)
  1003b0:	00 00 00 
  1003b3:	66 2e 0f 1f 84 00 00 	nopw   %cs:0x0(%rax,%rax,1)
  1003ba:	00 00 00 
  1003bd:	66 2e 0f 1f 84 00 00 	nopw   %cs:0x0(%rax,%rax,1)
  1003c4:	00 00 00 
  1003c7:	66 2e 0f 1f 84 00 00 	nopw   %cs:0x0(%rax,%rax,1)
  1003ce:	00 00 00 
  1003d1:	66 2e 0f 1f 84 00 00 	nopw   %cs:0x0(%rax,%rax,1)
  1003d8:	00 00 00 
  1003db:	66 2e 0f 1f 84 00 00 	nopw   %cs:0x0(%rax,%rax,1)
  1003e2:	00 00 00 
  1003e5:	66 2e 0f 1f 84 00 00 	nopw   %cs:0x0(%rax,%rax,1)
  1003ec:	00 00 00 
  1003ef:	66 2e 0f 1f 84 00 00 	nopw   %cs:0x0(%rax,%rax,1)
  1003f6:	00 00 00 
  1003f9:	66 2e 0f 1f 84 00 00 	nopw   %cs:0x0(%rax,%rax,1)
  100400:	00 00 00 
  100403:	66 2e 0f 1f 84 00 00 	nopw   %cs:0x0(%rax,%rax,1)
  10040a:	00 00 00 
  10040d:	66 2e 0f 1f 84 00 00 	nopw   %cs:0x0(%rax,%rax,1)
  100414:	00 00 00 
  100417:	66 2e 0f 1f 84 00 00 	nopw   %cs:0x0(%rax,%rax,1)
  10041e:	00 00 00 
  100421:	66 2e 0f 1f 84 00 00 	nopw   %cs:0x0(%rax,%rax,1)
  100428:	00 00 00 
  10042b:	66 2e 0f 1f 84 00 00 	nopw   %cs:0x0(%rax,%rax,1)
  100432:	00 00 00 
  100435:	66 2e 0f 1f 84 00 00 	nopw   %cs:0x0(%rax,%rax,1)
  10043c:	00 00 00 
  10043f:	66 2e 0f 1f 84 00 00 	nopw   %cs:0x0(%rax,%rax,1)
  100446:	00 00 00 
  100449:	66 2e 0f 1f 84 00 00 	nopw   %cs:0x0(%rax,%rax,1)
  100450:	00 00 00 
  100453:	66 2e 0f 1f 84 00 00 	nopw   %cs:0x0(%rax,%rax,1)
  10045a:	00 00 00 
  10045d:	66 2e 0f 1f 84 00 00 	nopw   %cs:0x0(%rax,%rax,1)
  100464:	00 00 00 
  100467:	66 2e 0f 1f 84 00 00 	nopw   %cs:0x0(%rax,%rax,1)
  10046e:	00 00 00 
  100471:	66 2e 0f 1f 84 00 00 	nopw   %cs:0x0(%rax,%rax,1)
  100478:	00 00 00 
  10047b:	66 2e 0f 1f 84 00 00 	nopw   %cs:0x0(%rax,%rax,1)
  100482:	00 00 00 
  100485:	66 2e 0f 1f 84 00 00 	nopw   %cs:0x0(%rax,%rax,1)
  10048c:	00 00 00 
  10048f:	66 2e 0f 1f 84 00 00 	nopw   %cs:0x0(%rax,%rax,1)
  100496:	00 00 00 
  100499:	66 2e 0f 1f 84 00 00 	nopw   %cs:0x0(%rax,%rax,1)
  1004a0:	00 00 00 
  1004a3:	66 2e 0f 1f 84 00 00 	nopw   %cs:0x0(%rax,%rax,1)
  1004aa:	00 00 00 
  1004ad:	66 2e 0f 1f 84 00 00 	nopw   %cs:0x0(%rax,%rax,1)
  1004b4:	00 00 00 
  1004b7:	66 2e 0f 1f 84 00 00 	nopw   %cs:0x0(%rax,%rax,1)
  1004be:	00 00 00 
  1004c1:	66 2e 0f 1f 84 00 00 	nopw   %cs:0x0(%rax,%rax,1)
  1004c8:	00 00 00 
  1004cb:	66 2e 0f 1f 84 00 00 	nopw   %cs:0x0(%rax,%rax,1)
  1004d2:	00 00 00 
  1004d5:	66 2e 0f 1f 84 00 00 	nopw   %cs:0x0(%rax,%rax,1)
  1004dc:	00 00 00 
  1004df:	66 2e 0f 1f 84 00 00 	nopw   %cs:0x0(%rax,%rax,1)
  1004e6:	00 00 00 
  1004e9:	66 2e 0f 1f 84 00 00 	nopw   %cs:0x0(%rax,%rax,1)
  1004f0:	00 00 00 
  1004f3:	66 2e 0f 1f 84 00 00 	nopw   %cs:0x0(%rax,%rax,1)
  1004fa:	00 00 00 
  1004fd:	66 2e 0f 1f 84 00 00 	nopw   %cs:0x0(%rax,%rax,1)
  100504:	00 00 00 
  100507:	66 2e 0f 1f 84 00 00 	nopw   %cs:0x0(%rax,%rax,1)
  10050e:	00 00 00 
  100511:	66 2e 0f 1f 84 00 00 	nopw   %cs:0x0(%rax,%rax,1)
  100518:	00 00 00 
  10051b:	66 2e 0f 1f 84 00 00 	nopw   %cs:0x0(%rax,%rax,1)
  100522:	00 00 00 
  100525:	66 2e 0f 1f 84 00 00 	nopw   %cs:0x0(%rax,%rax,1)
  10052c:	00 00 00 
  10052f:	66 2e 0f 1f 84 00 00 	nopw   %cs:0x0(%rax,%rax,1)
  100536:	00 00 00 
  100539:	66 2e 0f 1f 84 00 00 	nopw   %cs:0x0(%rax,%rax,1)
  100540:	00 00 00 
  100543:	66 2e 0f 1f 84 00 00 	nopw   %cs:0x0(%rax,%rax,1)
  10054a:	00 00 00 
  10054d:	66 2e 0f 1f 84 00 00 	nopw   %cs:0x0(%rax,%rax,1)
  100554:	00 00 00 
  100557:	66 2e 0f 1f 84 00 00 	nopw   %cs:0x0(%rax,%rax,1)
  10055e:	00 00 00 
  100561:	66 2e 0f 1f 84 00 00 	nopw   %cs:0x0(%rax,%rax,1)
  100568:	00 00 00 
  10056b:	66 2e 0f 1f 84 00 00 	nopw   %cs:0x0(%rax,%rax,1)
  100572:	00 00 00 
  100575:	66 2e 0f 1f 84 00 00 	nopw   %cs:0x0(%rax,%rax,1)
  10057c:	00 00 00 
  10057f:	66 2e 0f 1f 84 00 00 	nopw   %cs:0x0(%rax,%rax,1)
  100586:	00 00 00 
  100589:	66 2e 0f 1f 84 00 00 	nopw   %cs:0x0(%rax,%rax,1)
  100590:	00 00 00 
  100593:	66 2e 0f 1f 84 00 00 	nopw   %cs:0x0(%rax,%rax,1)
  10059a:	00 00 00 
  10059d:	66 2e 0f 1f 84 00 00 	nopw   %cs:0x0(%rax,%rax,1)
  1005a4:	00 00 00 
  1005a7:	66 2e 0f 1f 84 00 00 	nopw   %cs:0x0(%rax,%rax,1)
  1005ae:	00 00 00 
  1005b1:	66 2e 0f 1f 84 00 00 	nopw   %cs:0x0(%rax,%rax,1)
  1005b8:	00 00 00 
  1005bb:	66 2e 0f 1f 84 00 00 	nopw   %cs:0x0(%rax,%rax,1)
  1005c2:	00 00 00 
  1005c5:	66 2e 0f 1f 84 00 00 	nopw   %cs:0x0(%rax,%rax,1)
  1005cc:	00 00 00 
  1005cf:	66 2e 0f 1f 84 00 00 	nopw   %cs:0x0(%rax,%rax,1)
  1005d6:	00 00 00 
  1005d9:	66 2e 0f 1f 84 00 00 	nopw   %cs:0x0(%rax,%rax,1)
  1005e0:	00 00 00 
  1005e3:	66 2e 0f 1f 84 00 00 	nopw   %cs:0x0(%rax,%rax,1)
  1005ea:	00 00 00 
  1005ed:	66 2e 0f 1f 84 00 00 	nopw   %cs:0x0(%rax,%rax,1)
  1005f4:	00 00 00 
  1005f7:	66 2e 0f 1f 84 00 00 	nopw   %cs:0x0(%rax,%rax,1)
  1005fe:	00 00 00 
  100601:	66 2e 0f 1f 84 00 00 	nopw   %cs:0x0(%rax,%rax,1)
  100608:	00 00 00 
  10060b:	66 2e 0f 1f 84 00 00 	nopw   %cs:0x0(%rax,%rax,1)
  100612:	00 00 00 
  100615:	66 2e 0f 1f 84 00 00 	nopw   %cs:0x0(%rax,%rax,1)
  10061c:	00 00 00 
  10061f:	66 2e 0f 1f 84 00 00 	nopw   %cs:0x0(%rax,%rax,1)
  100626:	00 00 00 
  100629:	66 2e 0f 1f 84 00 00 	nopw   %cs:0x0(%rax,%rax,1)
  100630:	00 00 00 
  100633:	66 2e 0f 1f 84 00 00 	nopw   %cs:0x0(%rax,%rax,1)
  10063a:	00 00 00 
  10063d:	66 2e 0f 1f 84 00 00 	nopw   %cs:0x0(%rax,%rax,1)
  100644:	00 00 00 
  100647:	66 2e 0f 1f 84 00 00 	nopw   %cs:0x0(%rax,%rax,1)
  10064e:	00 00 00 
  100651:	66 2e 0f 1f 84 00 00 	nopw   %cs:0x0(%rax,%rax,1)
  100658:	00 00 00 
  10065b:	66 2e 0f 1f 84 00 00 	nopw   %cs:0x0(%rax,%rax,1)
  100662:	00 00 00 
  100665:	66 2e 0f 1f 84 00 00 	nopw   %cs:0x0(%rax,%rax,1)
  10066c:	00 00 00 
  10066f:	66 2e 0f 1f 84 00 00 	nopw   %cs:0x0(%rax,%rax,1)
  100676:	00 00 00 
  100679:	66 2e 0f 1f 84 00 00 	nopw   %cs:0x0(%rax,%rax,1)
  100680:	00 00 00 
  100683:	66 2e 0f 1f 84 00 00 	nopw   %cs:0x0(%rax,%rax,1)
  10068a:	00 00 00 
  10068d:	66 2e 0f 1f 84 00 00 	nopw   %cs:0x0(%rax,%rax,1)
  100694:	00 00 00 
  100697:	66 2e 0f 1f 84 00 00 	nopw   %cs:0x0(%rax,%rax,1)
  10069e:	00 00 00 
  1006a1:	66 2e 0f 1f 84 00 00 	nopw   %cs:0x0(%rax,%rax,1)
  1006a8:	00 00 00 
  1006ab:	66 2e 0f 1f 84 00 00 	nopw   %cs:0x0(%rax,%rax,1)
  1006b2:	00 00 00 
  1006b5:	66 2e 0f 1f 84 00 00 	nopw   %cs:0x0(%rax,%rax,1)
  1006bc:	00 00 00 
  1006bf:	66 2e 0f 1f 84 00 00 	nopw   %cs:0x0(%rax,%rax,1)
  1006c6:	00 00 00 
  1006c9:	66 2e 0f 1f 84 00 00 	nopw   %cs:0x0(%rax,%rax,1)
  1006d0:	00 00 00 
  1006d3:	66 2e 0f 1f 84 00 00 	nopw   %cs:0x0(%rax,%rax,1)
  1006da:	00 00 00 
  1006dd:	66 2e 0f 1f 84 00 00 	nopw   %cs:0x0(%rax,%rax,1)
  1006e4:	00 00 00 
  1006e7:	66 2e 0f 1f 84 00 00 	nopw   %cs:0x0(%rax,%rax,1)
  1006ee:	00 00 00 
  1006f1:	66 2e 0f 1f 84 00 00 	nopw   %cs:0x0(%rax,%rax,1)
  1006f8:	00 00 00 
  1006fb:	66 2e 0f 1f 84 00 00 	nopw   %cs:0x0(%rax,%rax,1)
  100702:	00 00 00 
  100705:	66 2e 0f 1f 84 00 00 	nopw   %cs:0x0(%rax,%rax,1)
  10070c:	00 00 00 
  10070f:	66 2e 0f 1f 84 00 00 	nopw   %cs:0x0(%rax,%rax,1)
  100716:	00 00 00 
  100719:	66 2e 0f 1f 84 00 00 	nopw   %cs:0x0(%rax,%rax,1)
  100720:	00 00 00 
  100723:	66 2e 0f 1f 84 00 00 	nopw   %cs:0x0(%rax,%rax,1)
  10072a:	00 00 00 
  10072d:	66 2e 0f 1f 84 00 00 	nopw   %cs:0x0(%rax,%rax,1)
  100734:	00 00 00 
  100737:	66 2e 0f 1f 84 00 00 	nopw   %cs:0x0(%rax,%rax,1)
  10073e:	00 00 00 
  100741:	66 2e 0f 1f 84 00 00 	nopw   %cs:0x0(%rax,%rax,1)
  100748:	00 00 00 
  10074b:	66 2e 0f 1f 84 00 00 	nopw   %cs:0x0(%rax,%rax,1)
  100752:	00 00 00 
  100755:	66 2e 0f 1f 84 00 00 	nopw   %cs:0x0(%rax,%rax,1)
  10075c:	00 00 00 
  10075f:	66 2e 0f 1f 84 00 00 	nopw   %cs:0x0(%rax,%rax,1)
  100766:	00 00 00 
  100769:	66 2e 0f 1f 84 00 00 	nopw   %cs:0x0(%rax,%rax,1)
  100770:	00 00 00 
  100773:	66 2e 0f 1f 84 00 00 	nopw   %cs:0x0(%rax,%rax,1)
  10077a:	00 00 00 
  10077d:	66 2e 0f 1f 84 00 00 	nopw   %cs:0x0(%rax,%rax,1)
  100784:	00 00 00 
  100787:	66 2e 0f 1f 84 00 00 	nopw   %cs:0x0(%rax,%rax,1)
  10078e:	00 00 00 
  100791:	66 2e 0f 1f 84 00 00 	nopw   %cs:0x0(%rax,%rax,1)
  100798:	00 00 00 
  10079b:	66 2e 0f 1f 84 00 00 	nopw   %cs:0x0(%rax,%rax,1)
  1007a2:	00 00 00 
  1007a5:	66 2e 0f 1f 84 00 00 	nopw   %cs:0x0(%rax,%rax,1)
  1007ac:	00 00 00 
  1007af:	66 2e 0f 1f 84 00 00 	nopw   %cs:0x0(%rax,%rax,1)
  1007b6:	00 00 00 
  1007b9:	66 2e 0f 1f 84 00 00 	nopw   %cs:0x0(%rax,%rax,1)
  1007c0:	00 00 00 
  1007c3:	66 2e 0f 1f 84 00 00 	nopw   %cs:0x0(%rax,%rax,1)
  1007ca:	00 00 00 
  1007cd:	66 2e 0f 1f 84 00 00 	nopw   %cs:0x0(%rax,%rax,1)
  1007d4:	00 00 00 
  1007d7:	66 2e 0f 1f 84 00 00 	nopw   %cs:0x0(%rax,%rax,1)
  1007de:	00 00 00 
  1007e1:	66 2e 0f 1f 84 00 00 	nopw   %cs:0x0(%rax,%rax,1)
  1007e8:	00 00 00 
  1007eb:	66 2e 0f 1f 84 00 00 	nopw   %cs:0x0(%rax,%rax,1)
  1007f2:	00 00 00 
  1007f5:	66 2e 0f 1f 84 00 00 	nopw   %cs:0x0(%rax,%rax,1)
  1007fc:	00 00 00 
  1007ff:	66 2e 0f 1f 84 00 00 	nopw   %cs:0x0(%rax,%rax,1)
  100806:	00 00 00 
  100809:	66 2e 0f 1f 84 00 00 	nopw   %cs:0x0(%rax,%rax,1)
  100810:	00 00 00 
  100813:	66 2e 0f 1f 84 00 00 	nopw   %cs:0x0(%rax,%rax,1)
  10081a:	00 00 00 
  10081d:	66 2e 0f 1f 84 00 00 	nopw   %cs:0x0(%rax,%rax,1)
  100824:	00 00 00 
  100827:	66 2e 0f 1f 84 00 00 	nopw   %cs:0x0(%rax,%rax,1)
  10082e:	00 00 00 
  100831:	66 2e 0f 1f 84 00 00 	nopw   %cs:0x0(%rax,%rax,1)
  100838:	00 00 00 
  10083b:	66 2e 0f 1f 84 00 00 	nopw   %cs:0x0(%rax,%rax,1)
  100842:	00 00 00 
  100845:	66 2e 0f 1f 84 00 00 	nopw   %cs:0x0(%rax,%rax,1)
  10084c:	00 00 00 
  10084f:	66 2e 0f 1f 84 00 00 	nopw   %cs:0x0(%rax,%rax,1)
  100856:	00 00 00 
  100859:	66 2e 0f 1f 84 00 00 	nopw   %cs:0x0(%rax,%rax,1)
  100860:	00 00 00 
  100863:	66 2e 0f 1f 84 00 00 	nopw   %cs:0x0(%rax,%rax,1)
  10086a:	00 00 00 
  10086d:	66 2e 0f 1f 84 00 00 	nopw   %cs:0x0(%rax,%rax,1)
  100874:	00 00 00 
  100877:	66 2e 0f 1f 84 00 00 	nopw   %cs:0x0(%rax,%rax,1)
  10087e:	00 00 00 
  100881:	66 2e 0f 1f 84 00 00 	nopw   %cs:0x0(%rax,%rax,1)
  100888:	00 00 00 
  10088b:	66 2e 0f 1f 84 00 00 	nopw   %cs:0x0(%rax,%rax,1)
  100892:	00 00 00 
  100895:	66 2e 0f 1f 84 00 00 	nopw   %cs:0x0(%rax,%rax,1)
  10089c:	00 00 00 
  10089f:	66 2e 0f 1f 84 00 00 	nopw   %cs:0x0(%rax,%rax,1)
  1008a6:	00 00 00 
  1008a9:	66 2e 0f 1f 84 00 00 	nopw   %cs:0x0(%rax,%rax,1)
  1008b0:	00 00 00 
  1008b3:	66 2e 0f 1f 84 00 00 	nopw   %cs:0x0(%rax,%rax,1)
  1008ba:	00 00 00 
  1008bd:	66 2e 0f 1f 84 00 00 	nopw   %cs:0x0(%rax,%rax,1)
  1008c4:	00 00 00 
  1008c7:	66 2e 0f 1f 84 00 00 	nopw   %cs:0x0(%rax,%rax,1)
  1008ce:	00 00 00 
  1008d1:	66 2e 0f 1f 84 00 00 	nopw   %cs:0x0(%rax,%rax,1)
  1008d8:	00 00 00 
  1008db:	66 2e 0f 1f 84 00 00 	nopw   %cs:0x0(%rax,%rax,1)
  1008e2:	00 00 00 
  1008e5:	66 2e 0f 1f 84 00 00 	nopw   %cs:0x0(%rax,%rax,1)
  1008ec:	00 00 00 
  1008ef:	66 2e 0f 1f 84 00 00 	nopw   %cs:0x0(%rax,%rax,1)
  1008f6:	00 00 00 
  1008f9:	66 2e 0f 1f 84 00 00 	nopw   %cs:0x0(%rax,%rax,1)
  100900:	00 00 00 
  100903:	66 2e 0f 1f 84 00 00 	nopw   %cs:0x0(%rax,%rax,1)
  10090a:	00 00 00 
  10090d:	66 2e 0f 1f 84 00 00 	nopw   %cs:0x0(%rax,%rax,1)
  100914:	00 00 00 
  100917:	66 2e 0f 1f 84 00 00 	nopw   %cs:0x0(%rax,%rax,1)
  10091e:	00 00 00 
  100921:	66 2e 0f 1f 84 00 00 	nopw   %cs:0x0(%rax,%rax,1)
  100928:	00 00 00 
  10092b:	66 2e 0f 1f 84 00 00 	nopw   %cs:0x0(%rax,%rax,1)
  100932:	00 00 00 
  100935:	66 2e 0f 1f 84 00 00 	nopw   %cs:0x0(%rax,%rax,1)
  10093c:	00 00 00 
  10093f:	66 2e 0f 1f 84 00 00 	nopw   %cs:0x0(%rax,%rax,1)
  100946:	00 00 00 
  100949:	66 2e 0f 1f 84 00 00 	nopw   %cs:0x0(%rax,%rax,1)
  100950:	00 00 00 
  100953:	66 2e 0f 1f 84 00 00 	nopw   %cs:0x0(%rax,%rax,1)
  10095a:	00 00 00 
  10095d:	66 2e 0f 1f 84 00 00 	nopw   %cs:0x0(%rax,%rax,1)
  100964:	00 00 00 
  100967:	66 2e 0f 1f 84 00 00 	nopw   %cs:0x0(%rax,%rax,1)
  10096e:	00 00 00 
  100971:	66 2e 0f 1f 84 00 00 	nopw   %cs:0x0(%rax,%rax,1)
  100978:	00 00 00 
  10097b:	66 2e 0f 1f 84 00 00 	nopw   %cs:0x0(%rax,%rax,1)
  100982:	00 00 00 
  100985:	66 2e 0f 1f 84 00 00 	nopw   %cs:0x0(%rax,%rax,1)
  10098c:	00 00 00 
  10098f:	66 2e 0f 1f 84 00 00 	nopw   %cs:0x0(%rax,%rax,1)
  100996:	00 00 00 
  100999:	66 2e 0f 1f 84 00 00 	nopw   %cs:0x0(%rax,%rax,1)
  1009a0:	00 00 00 
  1009a3:	66 2e 0f 1f 84 00 00 	nopw   %cs:0x0(%rax,%rax,1)
  1009aa:	00 00 00 
  1009ad:	66 2e 0f 1f 84 00 00 	nopw   %cs:0x0(%rax,%rax,1)
  1009b4:	00 00 00 
  1009b7:	66 2e 0f 1f 84 00 00 	nopw   %cs:0x0(%rax,%rax,1)
  1009be:	00 00 00 
  1009c1:	66 2e 0f 1f 84 00 00 	nopw   %cs:0x0(%rax,%rax,1)
  1009c8:	00 00 00 
  1009cb:	66 2e 0f 1f 84 00 00 	nopw   %cs:0x0(%rax,%rax,1)
  1009d2:	00 00 00 
  1009d5:	66 2e 0f 1f 84 00 00 	nopw   %cs:0x0(%rax,%rax,1)
  1009dc:	00 00 00 
  1009df:	66 2e 0f 1f 84 00 00 	nopw   %cs:0x0(%rax,%rax,1)
  1009e6:	00 00 00 
  1009e9:	66 2e 0f 1f 84 00 00 	nopw   %cs:0x0(%rax,%rax,1)
  1009f0:	00 00 00 
  1009f3:	66 2e 0f 1f 84 00 00 	nopw   %cs:0x0(%rax,%rax,1)
  1009fa:	00 00 00 
  1009fd:	66 2e 0f 1f 84 00 00 	nopw   %cs:0x0(%rax,%rax,1)
  100a04:	00 00 00 
  100a07:	66 2e 0f 1f 84 00 00 	nopw   %cs:0x0(%rax,%rax,1)
  100a0e:	00 00 00 
  100a11:	66 2e 0f 1f 84 00 00 	nopw   %cs:0x0(%rax,%rax,1)
  100a18:	00 00 00 
  100a1b:	66 2e 0f 1f 84 00 00 	nopw   %cs:0x0(%rax,%rax,1)
  100a22:	00 00 00 
  100a25:	66 2e 0f 1f 84 00 00 	nopw   %cs:0x0(%rax,%rax,1)
  100a2c:	00 00 00 
  100a2f:	66 2e 0f 1f 84 00 00 	nopw   %cs:0x0(%rax,%rax,1)
  100a36:	00 00 00 
  100a39:	66 2e 0f 1f 84 00 00 	nopw   %cs:0x0(%rax,%rax,1)
  100a40:	00 00 00 
  100a43:	66 2e 0f 1f 84 00 00 	nopw   %cs:0x0(%rax,%rax,1)
  100a4a:	00 00 00 
  100a4d:	66 2e 0f 1f 84 00 00 	nopw   %cs:0x0(%rax,%rax,1)
  100a54:	00 00 00 
  100a57:	66 2e 0f 1f 84 00 00 	nopw   %cs:0x0(%rax,%rax,1)
  100a5e:	00 00 00 
  100a61:	66 2e 0f 1f 84 00 00 	nopw   %cs:0x0(%rax,%rax,1)
  100a68:	00 00 00 
  100a6b:	66 2e 0f 1f 84 00 00 	nopw   %cs:0x0(%rax,%rax,1)
  100a72:	00 00 00 
  100a75:	66 2e 0f 1f 84 00 00 	nopw   %cs:0x0(%rax,%rax,1)
  100a7c:	00 00 00 
  100a7f:	66 2e 0f 1f 84 00 00 	nopw   %cs:0x0(%rax,%rax,1)
  100a86:	00 00 00 
  100a89:	66 2e 0f 1f 84 00 00 	nopw   %cs:0x0(%rax,%rax,1)
  100a90:	00 00 00 
  100a93:	66 2e 0f 1f 84 00 00 	nopw   %cs:0x0(%rax,%rax,1)
  100a9a:	00 00 00 
  100a9d:	66 2e 0f 1f 84 00 00 	nopw   %cs:0x0(%rax,%rax,1)
  100aa4:	00 00 00 
  100aa7:	66 2e 0f 1f 84 00 00 	nopw   %cs:0x0(%rax,%rax,1)
  100aae:	00 00 00 
  100ab1:	66 2e 0f 1f 84 00 00 	nopw   %cs:0x0(%rax,%rax,1)
  100ab8:	00 00 00 
  100abb:	66 2e 0f 1f 84 00 00 	nopw   %cs:0x0(%rax,%rax,1)
  100ac2:	00 00 00 
  100ac5:	66 2e 0f 1f 84 00 00 	nopw   %cs:0x0(%rax,%rax,1)
  100acc:	00 00 00 
  100acf:	66 2e 0f 1f 84 00 00 	nopw   %cs:0x0(%rax,%rax,1)
  100ad6:	00 00 00 
  100ad9:	66 2e 0f 1f 84 00 00 	nopw   %cs:0x0(%rax,%rax,1)
  100ae0:	00 00 00 
  100ae3:	66 2e 0f 1f 84 00 00 	nopw   %cs:0x0(%rax,%rax,1)
  100aea:	00 00 00 
  100aed:	66 2e 0f 1f 84 00 00 	nopw   %cs:0x0(%rax,%rax,1)
  100af4:	00 00 00 
  100af7:	66 2e 0f 1f 84 00 00 	nopw   %cs:0x0(%rax,%rax,1)
  100afe:	00 00 00 
  100b01:	66 2e 0f 1f 84 00 00 	nopw   %cs:0x0(%rax,%rax,1)
  100b08:	00 00 00 
  100b0b:	66 2e 0f 1f 84 00 00 	nopw   %cs:0x0(%rax,%rax,1)
  100b12:	00 00 00 
  100b15:	66 2e 0f 1f 84 00 00 	nopw   %cs:0x0(%rax,%rax,1)
  100b1c:	00 00 00 
  100b1f:	66 2e 0f 1f 84 00 00 	nopw   %cs:0x0(%rax,%rax,1)
  100b26:	00 00 00 
  100b29:	66 2e 0f 1f 84 00 00 	nopw   %cs:0x0(%rax,%rax,1)
  100b30:	00 00 00 
  100b33:	66 2e 0f 1f 84 00 00 	nopw   %cs:0x0(%rax,%rax,1)
  100b3a:	00 00 00 
  100b3d:	66 2e 0f 1f 84 00 00 	nopw   %cs:0x0(%rax,%rax,1)
  100b44:	00 00 00 
  100b47:	66 2e 0f 1f 84 00 00 	nopw   %cs:0x0(%rax,%rax,1)
  100b4e:	00 00 00 
  100b51:	66 2e 0f 1f 84 00 00 	nopw   %cs:0x0(%rax,%rax,1)
  100b58:	00 00 00 
  100b5b:	66 2e 0f 1f 84 00 00 	nopw   %cs:0x0(%rax,%rax,1)
  100b62:	00 00 00 
  100b65:	66 2e 0f 1f 84 00 00 	nopw   %cs:0x0(%rax,%rax,1)
  100b6c:	00 00 00 
  100b6f:	66 2e 0f 1f 84 00 00 	nopw   %cs:0x0(%rax,%rax,1)
  100b76:	00 00 00 
  100b79:	66 2e 0f 1f 84 00 00 	nopw   %cs:0x0(%rax,%rax,1)
  100b80:	00 00 00 
  100b83:	66 2e 0f 1f 84 00 00 	nopw   %cs:0x0(%rax,%rax,1)
  100b8a:	00 00 00 
  100b8d:	66 2e 0f 1f 84 00 00 	nopw   %cs:0x0(%rax,%rax,1)
  100b94:	00 00 00 
  100b97:	66 2e 0f 1f 84 00 00 	nopw   %cs:0x0(%rax,%rax,1)
  100b9e:	00 00 00 
  100ba1:	66 2e 0f 1f 84 00 00 	nopw   %cs:0x0(%rax,%rax,1)
  100ba8:	00 00 00 
  100bab:	66 2e 0f 1f 84 00 00 	nopw   %cs:0x0(%rax,%rax,1)
  100bb2:	00 00 00 
  100bb5:	66 2e 0f 1f 84 00 00 	nopw   %cs:0x0(%rax,%rax,1)
  100bbc:	00 00 00 
  100bbf:	66 2e 0f 1f 84 00 00 	nopw   %cs:0x0(%rax,%rax,1)
  100bc6:	00 00 00 
  100bc9:	66 2e 0f 1f 84 00 00 	nopw   %cs:0x0(%rax,%rax,1)
  100bd0:	00 00 00 
  100bd3:	66 2e 0f 1f 84 00 00 	nopw   %cs:0x0(%rax,%rax,1)
  100bda:	00 00 00 
  100bdd:	66 2e 0f 1f 84 00 00 	nopw   %cs:0x0(%rax,%rax,1)
  100be4:	00 00 00 
  100be7:	66 2e 0f 1f 84 00 00 	nopw   %cs:0x0(%rax,%rax,1)
  100bee:	00 00 00 
  100bf1:	66 2e 0f 1f 84 00 00 	nopw   %cs:0x0(%rax,%rax,1)
  100bf8:	00 00 00 
  100bfb:	66 2e 0f 1f 84 00 00 	nopw   %cs:0x0(%rax,%rax,1)
  100c02:	00 00 00 
  100c05:	66 2e 0f 1f 84 00 00 	nopw   %cs:0x0(%rax,%rax,1)
  100c0c:	00 00 00 
  100c0f:	66 2e 0f 1f 84 00 00 	nopw   %cs:0x0(%rax,%rax,1)
  100c16:	00 00 00 
  100c19:	66 2e 0f 1f 84 00 00 	nopw   %cs:0x0(%rax,%rax,1)
  100c20:	00 00 00 
  100c23:	66 2e 0f 1f 84 00 00 	nopw   %cs:0x0(%rax,%rax,1)
  100c2a:	00 00 00 
  100c2d:	66 2e 0f 1f 84 00 00 	nopw   %cs:0x0(%rax,%rax,1)
  100c34:	00 00 00 
  100c37:	66 2e 0f 1f 84 00 00 	nopw   %cs:0x0(%rax,%rax,1)
  100c3e:	00 00 00 
  100c41:	66 2e 0f 1f 84 00 00 	nopw   %cs:0x0(%rax,%rax,1)
  100c48:	00 00 00 
  100c4b:	66 2e 0f 1f 84 00 00 	nopw   %cs:0x0(%rax,%rax,1)
  100c52:	00 00 00 
  100c55:	66 2e 0f 1f 84 00 00 	nopw   %cs:0x0(%rax,%rax,1)
  100c5c:	00 00 00 
  100c5f:	66 2e 0f 1f 84 00 00 	nopw   %cs:0x0(%rax,%rax,1)
  100c66:	00 00 00 
  100c69:	66 2e 0f 1f 84 00 00 	nopw   %cs:0x0(%rax,%rax,1)
  100c70:	00 00 00 
  100c73:	66 2e 0f 1f 84 00 00 	nopw   %cs:0x0(%rax,%rax,1)
  100c7a:	00 00 00 
  100c7d:	66 2e 0f 1f 84 00 00 	nopw   %cs:0x0(%rax,%rax,1)
  100c84:	00 00 00 
  100c87:	66 2e 0f 1f 84 00 00 	nopw   %cs:0x0(%rax,%rax,1)
  100c8e:	00 00 00 
  100c91:	66 2e 0f 1f 84 00 00 	nopw   %cs:0x0(%rax,%rax,1)
  100c98:	00 00 00 
  100c9b:	66 2e 0f 1f 84 00 00 	nopw   %cs:0x0(%rax,%rax,1)
  100ca2:	00 00 00 
  100ca5:	66 2e 0f 1f 84 00 00 	nopw   %cs:0x0(%rax,%rax,1)
  100cac:	00 00 00 
  100caf:	66 2e 0f 1f 84 00 00 	nopw   %cs:0x0(%rax,%rax,1)
  100cb6:	00 00 00 
  100cb9:	66 2e 0f 1f 84 00 00 	nopw   %cs:0x0(%rax,%rax,1)
  100cc0:	00 00 00 
  100cc3:	66 2e 0f 1f 84 00 00 	nopw   %cs:0x0(%rax,%rax,1)
  100cca:	00 00 00 
  100ccd:	66 2e 0f 1f 84 00 00 	nopw   %cs:0x0(%rax,%rax,1)
  100cd4:	00 00 00 
  100cd7:	66 2e 0f 1f 84 00 00 	nopw   %cs:0x0(%rax,%rax,1)
  100cde:	00 00 00 
  100ce1:	66 2e 0f 1f 84 00 00 	nopw   %cs:0x0(%rax,%rax,1)
  100ce8:	00 00 00 
  100ceb:	66 2e 0f 1f 84 00 00 	nopw   %cs:0x0(%rax,%rax,1)
  100cf2:	00 00 00 
  100cf5:	66 2e 0f 1f 84 00 00 	nopw   %cs:0x0(%rax,%rax,1)
  100cfc:	00 00 00 
  100cff:	66 2e 0f 1f 84 00 00 	nopw   %cs:0x0(%rax,%rax,1)
  100d06:	00 00 00 
  100d09:	66 2e 0f 1f 84 00 00 	nopw   %cs:0x0(%rax,%rax,1)
  100d10:	00 00 00 
  100d13:	66 2e 0f 1f 84 00 00 	nopw   %cs:0x0(%rax,%rax,1)
  100d1a:	00 00 00 
  100d1d:	66 2e 0f 1f 84 00 00 	nopw   %cs:0x0(%rax,%rax,1)
  100d24:	00 00 00 
  100d27:	66 2e 0f 1f 84 00 00 	nopw   %cs:0x0(%rax,%rax,1)
  100d2e:	00 00 00 
  100d31:	66 2e 0f 1f 84 00 00 	nopw   %cs:0x0(%rax,%rax,1)
  100d38:	00 00 00 
  100d3b:	66 2e 0f 1f 84 00 00 	nopw   %cs:0x0(%rax,%rax,1)
  100d42:	00 00 00 
  100d45:	66 2e 0f 1f 84 00 00 	nopw   %cs:0x0(%rax,%rax,1)
  100d4c:	00 00 00 
  100d4f:	66 2e 0f 1f 84 00 00 	nopw   %cs:0x0(%rax,%rax,1)
  100d56:	00 00 00 
  100d59:	66 2e 0f 1f 84 00 00 	nopw   %cs:0x0(%rax,%rax,1)
  100d60:	00 00 00 
  100d63:	66 2e 0f 1f 84 00 00 	nopw   %cs:0x0(%rax,%rax,1)
  100d6a:	00 00 00 
  100d6d:	66 2e 0f 1f 84 00 00 	nopw   %cs:0x0(%rax,%rax,1)
  100d74:	00 00 00 
  100d77:	66 2e 0f 1f 84 00 00 	nopw   %cs:0x0(%rax,%rax,1)
  100d7e:	00 00 00 
  100d81:	66 2e 0f 1f 84 00 00 	nopw   %cs:0x0(%rax,%rax,1)
  100d88:	00 00 00 
  100d8b:	66 2e 0f 1f 84 00 00 	nopw   %cs:0x0(%rax,%rax,1)
  100d92:	00 00 00 
  100d95:	66 2e 0f 1f 84 00 00 	nopw   %cs:0x0(%rax,%rax,1)
  100d9c:	00 00 00 
  100d9f:	66 2e 0f 1f 84 00 00 	nopw   %cs:0x0(%rax,%rax,1)
  100da6:	00 00 00 
  100da9:	66 2e 0f 1f 84 00 00 	nopw   %cs:0x0(%rax,%rax,1)
  100db0:	00 00 00 
  100db3:	66 2e 0f 1f 84 00 00 	nopw   %cs:0x0(%rax,%rax,1)
  100dba:	00 00 00 
  100dbd:	66 2e 0f 1f 84 00 00 	nopw   %cs:0x0(%rax,%rax,1)
  100dc4:	00 00 00 
  100dc7:	66 2e 0f 1f 84 00 00 	nopw   %cs:0x0(%rax,%rax,1)
  100dce:	00 00 00 
  100dd1:	66 2e 0f 1f 84 00 00 	nopw   %cs:0x0(%rax,%rax,1)
  100dd8:	00 00 00 
  100ddb:	66 2e 0f 1f 84 00 00 	nopw   %cs:0x0(%rax,%rax,1)
  100de2:	00 00 00 
  100de5:	66 2e 0f 1f 84 00 00 	nopw   %cs:0x0(%rax,%rax,1)
  100dec:	00 00 00 
  100def:	66 2e 0f 1f 84 00 00 	nopw   %cs:0x0(%rax,%rax,1)
  100df6:	00 00 00 
  100df9:	66 2e 0f 1f 84 00 00 	nopw   %cs:0x0(%rax,%rax,1)
  100e00:	00 00 00 
  100e03:	66 2e 0f 1f 84 00 00 	nopw   %cs:0x0(%rax,%rax,1)
  100e0a:	00 00 00 
  100e0d:	66 2e 0f 1f 84 00 00 	nopw   %cs:0x0(%rax,%rax,1)
  100e14:	00 00 00 
  100e17:	66 2e 0f 1f 84 00 00 	nopw   %cs:0x0(%rax,%rax,1)
  100e1e:	00 00 00 
  100e21:	66 2e 0f 1f 84 00 00 	nopw   %cs:0x0(%rax,%rax,1)
  100e28:	00 00 00 
  100e2b:	66 2e 0f 1f 84 00 00 	nopw   %cs:0x0(%rax,%rax,1)
  100e32:	00 00 00 
  100e35:	66 2e 0f 1f 84 00 00 	nopw   %cs:0x0(%rax,%rax,1)
  100e3c:	00 00 00 
  100e3f:	66 2e 0f 1f 84 00 00 	nopw   %cs:0x0(%rax,%rax,1)
  100e46:	00 00 00 
  100e49:	66 2e 0f 1f 84 00 00 	nopw   %cs:0x0(%rax,%rax,1)
  100e50:	00 00 00 
  100e53:	66 2e 0f 1f 84 00 00 	nopw   %cs:0x0(%rax,%rax,1)
  100e5a:	00 00 00 
  100e5d:	66 2e 0f 1f 84 00 00 	nopw   %cs:0x0(%rax,%rax,1)
  100e64:	00 00 00 
  100e67:	66 2e 0f 1f 84 00 00 	nopw   %cs:0x0(%rax,%rax,1)
  100e6e:	00 00 00 
  100e71:	66 2e 0f 1f 84 00 00 	nopw   %cs:0x0(%rax,%rax,1)
  100e78:	00 00 00 
  100e7b:	66 2e 0f 1f 84 00 00 	nopw   %cs:0x0(%rax,%rax,1)
  100e82:	00 00 00 
  100e85:	66 2e 0f 1f 84 00 00 	nopw   %cs:0x0(%rax,%rax,1)
  100e8c:	00 00 00 
  100e8f:	66 2e 0f 1f 84 00 00 	nopw   %cs:0x0(%rax,%rax,1)
  100e96:	00 00 00 
  100e99:	66 2e 0f 1f 84 00 00 	nopw   %cs:0x0(%rax,%rax,1)
  100ea0:	00 00 00 
  100ea3:	66 2e 0f 1f 84 00 00 	nopw   %cs:0x0(%rax,%rax,1)
  100eaa:	00 00 00 
  100ead:	66 2e 0f 1f 84 00 00 	nopw   %cs:0x0(%rax,%rax,1)
  100eb4:	00 00 00 
  100eb7:	66 2e 0f 1f 84 00 00 	nopw   %cs:0x0(%rax,%rax,1)
  100ebe:	00 00 00 
  100ec1:	66 2e 0f 1f 84 00 00 	nopw   %cs:0x0(%rax,%rax,1)
  100ec8:	00 00 00 
  100ecb:	66 2e 0f 1f 84 00 00 	nopw   %cs:0x0(%rax,%rax,1)
  100ed2:	00 00 00 
  100ed5:	66 2e 0f 1f 84 00 00 	nopw   %cs:0x0(%rax,%rax,1)
  100edc:	00 00 00 
  100edf:	66 2e 0f 1f 84 00 00 	nopw   %cs:0x0(%rax,%rax,1)
  100ee6:	00 00 00 
  100ee9:	66 2e 0f 1f 84 00 00 	nopw   %cs:0x0(%rax,%rax,1)
  100ef0:	00 00 00 
  100ef3:	66 2e 0f 1f 84 00 00 	nopw   %cs:0x0(%rax,%rax,1)
  100efa:	00 00 00 
  100efd:	66 2e 0f 1f 84 00 00 	nopw   %cs:0x0(%rax,%rax,1)
  100f04:	00 00 00 
  100f07:	66 2e 0f 1f 84 00 00 	nopw   %cs:0x0(%rax,%rax,1)
  100f0e:	00 00 00 
  100f11:	66 2e 0f 1f 84 00 00 	nopw   %cs:0x0(%rax,%rax,1)
  100f18:	00 00 00 
  100f1b:	66 2e 0f 1f 84 00 00 	nopw   %cs:0x0(%rax,%rax,1)
  100f22:	00 00 00 
  100f25:	66 2e 0f 1f 84 00 00 	nopw   %cs:0x0(%rax,%rax,1)
  100f2c:	00 00 00 
  100f2f:	66 2e 0f 1f 84 00 00 	nopw   %cs:0x0(%rax,%rax,1)
  100f36:	00 00 00 
  100f39:	66 2e 0f 1f 84 00 00 	nopw   %cs:0x0(%rax,%rax,1)
  100f40:	00 00 00 
  100f43:	66 2e 0f 1f 84 00 00 	nopw   %cs:0x0(%rax,%rax,1)
  100f4a:	00 00 00 
  100f4d:	66 2e 0f 1f 84 00 00 	nopw   %cs:0x0(%rax,%rax,1)
  100f54:	00 00 00 
  100f57:	66 2e 0f 1f 84 00 00 	nopw   %cs:0x0(%rax,%rax,1)
  100f5e:	00 00 00 
  100f61:	66 2e 0f 1f 84 00 00 	nopw   %cs:0x0(%rax,%rax,1)
  100f68:	00 00 00 
  100f6b:	66 2e 0f 1f 84 00 00 	nopw   %cs:0x0(%rax,%rax,1)
  100f72:	00 00 00 
  100f75:	66 2e 0f 1f 84 00 00 	nopw   %cs:0x0(%rax,%rax,1)
  100f7c:	00 00 00 
  100f7f:	66 2e 0f 1f 84 00 00 	nopw   %cs:0x0(%rax,%rax,1)
  100f86:	00 00 00 
  100f89:	66 2e 0f 1f 84 00 00 	nopw   %cs:0x0(%rax,%rax,1)
  100f90:	00 00 00 
  100f93:	66 2e 0f 1f 84 00 00 	nopw   %cs:0x0(%rax,%rax,1)
  100f9a:	00 00 00 
  100f9d:	66 2e 0f 1f 84 00 00 	nopw   %cs:0x0(%rax,%rax,1)
  100fa4:	00 00 00 
  100fa7:	66 2e 0f 1f 84 00 00 	nopw   %cs:0x0(%rax,%rax,1)
  100fae:	00 00 00 
  100fb1:	66 2e 0f 1f 84 00 00 	nopw   %cs:0x0(%rax,%rax,1)
  100fb8:	00 00 00 
  100fbb:	66 2e 0f 1f 84 00 00 	nopw   %cs:0x0(%rax,%rax,1)
  100fc2:	00 00 00 
  100fc5:	66 2e 0f 1f 84 00 00 	nopw   %cs:0x0(%rax,%rax,1)
  100fcc:	00 00 00 
  100fcf:	66 2e 0f 1f 84 00 00 	nopw   %cs:0x0(%rax,%rax,1)
  100fd6:	00 00 00 
  100fd9:	66 2e 0f 1f 84 00 00 	nopw   %cs:0x0(%rax,%rax,1)
  100fe0:	00 00 00 
  100fe3:	66 2e 0f 1f 84 00 00 	nopw   %cs:0x0(%rax,%rax,1)
  100fea:	00 00 00 
  100fed:	66 2e 0f 1f 84 00 00 	nopw   %cs:0x0(%rax,%rax,1)
  100ff4:	00 00 00 
  100ff7:	66 0f 1f 84 00 00 00 	nopw   0x0(%rax,%rax,1)
  100ffe:	00 00 

0000000000101000 <gdt_64>:
	...
  101008:	ff                   	(bad)  
  101009:	ff 00                	incl   (%rax)
  10100b:	00 00                	add    %al,(%rax)
  10100d:	9a                   	(bad)  
  10100e:	af                   	scas   %es:(%rdi),%eax
  10100f:	00 ff                	add    %bh,%bh
  101011:	ff 00                	incl   (%rax)
  101013:	00 00                	add    %al,(%rax)
  101015:	92                   	xchg   %eax,%edx
  101016:	cf                   	iret   
	...

0000000000101018 <gdtdesc_64>:
  101018:	17                   	(bad)  
  101019:	00 00                	add    %al,(%rax)
  10101b:	10 10                	adc    %dl,(%rax)
	...

0000000000102000 <pml4phys>:
	...

0000000000103000 <pdpt1>:
	...

0000000000104000 <pdpt2>:
	...

0000000000105000 <pde1>:
	...

0000000000106000 <pde2>:
	...

0000000000107000 <multiboot_info>:
  107000:	00 00                	add    %al,(%rax)
	...

Disassembly of section .text:

0000008004200000 <_start+0x8003fffff4>:
  8004200000:	02 b0 ad 1b 00 00    	add    0x1bad(%rax),%dh
  8004200006:	00 00                	add    %al,(%rax)
  8004200008:	fe 4f 52             	decb   0x52(%rdi)
  800420000b:	e4 48                	in     $0x48,%al

000000800420000c <entry>:
entry:

/* .globl _back_from_head64 */
/* _back_from_head64: */

    movabs   $gdtdesc_64,%rax
  800420000c:	48 b8 38 50 23 04 80 	movabs $0x8004235038,%rax
  8004200013:	00 00 00 
    lgdt     (%rax)
  8004200016:	0f 01 10             	lgdt   (%rax)
    movw    $DATA_SEL,%ax
  8004200019:	66 b8 10 00          	mov    $0x10,%ax
    movw    %ax,%ds
  800420001d:	8e d8                	mov    %eax,%ds
    movw    %ax,%ss
  800420001f:	8e d0                	mov    %eax,%ss
    movw    %ax,%fs
  8004200021:	8e e0                	mov    %eax,%fs
    movw    %ax,%gs
  8004200023:	8e e8                	mov    %eax,%gs
    movw    %ax,%es
  8004200025:	8e c0                	mov    %eax,%es
    pushq   $CODE_SEL
  8004200027:	6a 08                	pushq  $0x8
    movabs  $relocated,%rax
  8004200029:	48 b8 36 00 20 04 80 	movabs $0x8004200036,%rax
  8004200030:	00 00 00 
    pushq   %rax
  8004200033:	50                   	push   %rax
    lretq
  8004200034:	48 cb                	lretq  

0000008004200036 <relocated>:
relocated:

	# Clear the frame pointer register (RBP)
	# so that once we get into debugging C code,
	# stack backtraces will be terminated properly.
	movq	$0x0,%rbp			# nuke frame pointer
  8004200036:	48 c7 c5 00 00 00 00 	mov    $0x0,%rbp

	# Set the stack pointer
	movabs	$(bootstacktop),%rax
  800420003d:	48 b8 00 50 23 04 80 	movabs $0x8004235000,%rax
  8004200044:	00 00 00 
	movq  %rax,%rsp
  8004200047:	48 89 c4             	mov    %rax,%rsp

	# now to C code
    movabs $i386_init, %rax
  800420004a:	48 b8 99 00 20 04 80 	movabs $0x8004200099,%rax
  8004200051:	00 00 00 
	call *%rax
  8004200054:	ff d0                	callq  *%rax

0000008004200056 <spin>:

	# Should never get here, but in case we do, just spin.
spin:	jmp	spin
  8004200056:	eb fe                	jmp    8004200056 <spin>

0000008004200058 <xchg>:
	if (edxp)
		*edxp = edx;
}

static inline uint32_t
xchg(volatile uint32_t *addr,uint32_t newval){
  8004200058:	55                   	push   %rbp
  8004200059:	48 89 e5             	mov    %rsp,%rbp
  800420005c:	48 83 ec 1c          	sub    $0x1c,%rsp
  8004200060:	48 89 7d e8          	mov    %rdi,-0x18(%rbp)
  8004200064:	89 75 e4             	mov    %esi,-0x1c(%rbp)
	uint32_t result;
	__asm __volatile("lock; xchgl %0, %1":
  8004200067:	48 8b 55 e8          	mov    -0x18(%rbp),%rdx
  800420006b:	8b 45 e4             	mov    -0x1c(%rbp),%eax
  800420006e:	48 8b 4d e8          	mov    -0x18(%rbp),%rcx
  8004200072:	f0 87 02             	lock xchg %eax,(%rdx)
  8004200075:	89 45 fc             	mov    %eax,-0x4(%rbp)
			 "+m" (*addr), "=a" (result):
			 "1"(newval):
			 "cc");
	return result;
  8004200078:	8b 45 fc             	mov    -0x4(%rbp),%eax
}
  800420007b:	c9                   	leaveq 
  800420007c:	c3                   	retq   

000000800420007d <lock_kernel>:
  800420007d:	55                   	push   %rbp
  800420007e:	48 89 e5             	mov    %rsp,%rbp
  8004200081:	48 bf 60 57 23 04 80 	movabs $0x8004235760,%rdi
  8004200088:	00 00 00 
  800420008b:	48 b8 35 7f 21 04 80 	movabs $0x8004217f35,%rax
  8004200092:	00 00 00 
  8004200095:	ff d0                	callq  *%rax
  8004200097:	5d                   	pop    %rbp
  8004200098:	c3                   	retq   

0000008004200099 <i386_init>:
  8004200099:	55                   	push   %rbp
  800420009a:	48 89 e5             	mov    %rsp,%rbp
  800420009d:	48 ba 10 00 72 04 80 	movabs $0x8004720010,%rdx
  80042000a4:	00 00 00 
  80042000a7:	48 b8 77 d2 4d 04 80 	movabs $0x80044dd277,%rax
  80042000ae:	00 00 00 
  80042000b1:	48 29 c2             	sub    %rax,%rdx
  80042000b4:	48 89 d0             	mov    %rdx,%rax
  80042000b7:	48 89 c2             	mov    %rax,%rdx
  80042000ba:	be 00 00 00 00       	mov    $0x0,%esi
  80042000bf:	48 bf 77 d2 4d 04 80 	movabs $0x80044dd277,%rdi
  80042000c6:	00 00 00 
  80042000c9:	48 b8 ab 0b 21 04 80 	movabs $0x8004210bab,%rax
  80042000d0:	00 00 00 
  80042000d3:	ff d0                	callq  *%rax
  80042000d5:	48 b8 9a 11 20 04 80 	movabs $0x800420119a,%rax
  80042000dc:	00 00 00 
  80042000df:	ff d0                	callq  *%rax
  80042000e1:	be ac 1a 00 00       	mov    $0x1aac,%esi
  80042000e6:	48 bf 60 dd 21 04 80 	movabs $0x800421dd60,%rdi
  80042000ed:	00 00 00 
  80042000f0:	b8 00 00 00 00       	mov    $0x0,%eax
  80042000f5:	48 ba 77 9c 20 04 80 	movabs $0x8004209c77,%rdx
  80042000fc:	00 00 00 
  80042000ff:	ff d2                	callq  *%rdx
  8004200101:	48 b8 10 00 72 04 80 	movabs $0x8004720010,%rax
  8004200108:	00 00 00 
  800420010b:	48 89 c6             	mov    %rax,%rsi
  800420010e:	48 bf 00 00 01 04 80 	movabs $0x8004010000,%rdi
  8004200115:	00 00 00 
  8004200118:	48 b8 cb 65 21 04 80 	movabs $0x80042165cb,%rax
  800420011f:	00 00 00 
  8004200122:	ff d0                	callq  *%rax
  8004200124:	48 ba d0 d5 6d 04 80 	movabs $0x80046dd5d0,%rdx
  800420012b:	00 00 00 
  800420012e:	48 89 02             	mov    %rax,(%rdx)
  8004200131:	b8 00 00 00 00       	mov    $0x0,%eax
  8004200136:	48 ba 31 26 20 04 80 	movabs $0x8004202631,%rdx
  800420013d:	00 00 00 
  8004200140:	ff d2                	callq  *%rdx
  8004200142:	48 b8 61 7f 20 04 80 	movabs $0x8004207f61,%rax
  8004200149:	00 00 00 
  800420014c:	ff d0                	callq  *%rax
  800420014e:	48 b8 ef 9d 20 04 80 	movabs $0x8004209def,%rax
  8004200155:	00 00 00 
  8004200158:	ff d0                	callq  *%rax
  800420015a:	48 b8 55 75 21 04 80 	movabs $0x8004217555,%rax
  8004200161:	00 00 00 
  8004200164:	ff d0                	callq  *%rax
  8004200166:	48 b8 b3 79 21 04 80 	movabs $0x80042179b3,%rax
  800420016d:	00 00 00 
  8004200170:	ff d0                	callq  *%rax
  8004200172:	48 b8 77 99 20 04 80 	movabs $0x8004209977,%rax
  8004200179:	00 00 00 
  800420017c:	ff d0                	callq  *%rax
  800420017e:	48 b8 d0 93 21 04 80 	movabs $0x80042193d0,%rax
  8004200185:	00 00 00 
  8004200188:	ff d0                	callq  *%rax
  800420018a:	48 b8 94 93 21 04 80 	movabs $0x8004219394,%rax
  8004200191:	00 00 00 
  8004200194:	ff d0                	callq  *%rax
  8004200196:	48 b8 7d 00 20 04 80 	movabs $0x800420007d,%rax
  800420019d:	00 00 00 
  80042001a0:	ff d0                	callq  *%rax
  80042001a2:	48 b8 fc 01 20 04 80 	movabs $0x80042001fc,%rax
  80042001a9:	00 00 00 
  80042001ac:	ff d0                	callq  *%rax
  80042001ae:	be 01 00 00 00       	mov    $0x1,%esi
  80042001b3:	48 bf ef f6 2b 04 80 	movabs $0x80042bf6ef,%rdi
  80042001ba:	00 00 00 
  80042001bd:	48 b8 b2 8f 20 04 80 	movabs $0x8004208fb2,%rax
  80042001c4:	00 00 00 
  80042001c7:	ff d0                	callq  *%rax
  80042001c9:	be 00 00 00 00       	mov    $0x0,%esi
  80042001ce:	48 bf 8e 87 4a 04 80 	movabs $0x80044a878e,%rdi
  80042001d5:	00 00 00 
  80042001d8:	48 b8 b2 8f 20 04 80 	movabs $0x8004208fb2,%rax
  80042001df:	00 00 00 
  80042001e2:	ff d0                	callq  *%rax
  80042001e4:	48 b8 cc 0f 20 04 80 	movabs $0x8004200fcc,%rax
  80042001eb:	00 00 00 
  80042001ee:	ff d0                	callq  *%rax
  80042001f0:	48 b8 66 da 20 04 80 	movabs $0x800420da66,%rax
  80042001f7:	00 00 00 
  80042001fa:	ff d0                	callq  *%rax

00000080042001fc <boot_aps>:
  80042001fc:	55                   	push   %rbp
  80042001fd:	48 89 e5             	mov    %rsp,%rbp
  8004200200:	48 83 ec 30          	sub    $0x30,%rsp
  8004200204:	48 c7 45 f0 00 70 00 	movq   $0x7000,-0x10(%rbp)
  800420020b:	00 
  800420020c:	48 8b 45 f0          	mov    -0x10(%rbp),%rax
  8004200210:	48 c1 e8 0c          	shr    $0xc,%rax
  8004200214:	89 45 ec             	mov    %eax,-0x14(%rbp)
  8004200217:	8b 55 ec             	mov    -0x14(%rbp),%edx
  800420021a:	48 b8 f8 d5 6d 04 80 	movabs $0x80046dd5f8,%rax
  8004200221:	00 00 00 
  8004200224:	48 8b 00             	mov    (%rax),%rax
  8004200227:	48 39 c2             	cmp    %rax,%rdx
  800420022a:	72 32                	jb     800420025e <boot_aps+0x62>
  800420022c:	48 8b 45 f0          	mov    -0x10(%rbp),%rax
  8004200230:	48 89 c1             	mov    %rax,%rcx
  8004200233:	48 ba 80 dd 21 04 80 	movabs $0x800421dd80,%rdx
  800420023a:	00 00 00 
  800420023d:	be 01 01 00 00       	mov    $0x101,%esi
  8004200242:	48 bf a3 dd 21 04 80 	movabs $0x800421dda3,%rdi
  8004200249:	00 00 00 
  800420024c:	b8 00 00 00 00       	mov    $0x0,%eax
  8004200251:	49 b8 c9 04 20 04 80 	movabs $0x80042004c9,%r8
  8004200258:	00 00 00 
  800420025b:	41 ff d0             	callq  *%r8
  800420025e:	48 ba 00 00 00 04 80 	movabs $0x8004000000,%rdx
  8004200265:	00 00 00 
  8004200268:	48 8b 45 f0          	mov    -0x10(%rbp),%rax
  800420026c:	48 01 d0             	add    %rdx,%rax
  800420026f:	48 89 45 e0          	mov    %rax,-0x20(%rbp)
  8004200273:	48 ba 7e 70 21 04 80 	movabs $0x800421707e,%rdx
  800420027a:	00 00 00 
  800420027d:	48 b8 98 6f 21 04 80 	movabs $0x8004216f98,%rax
  8004200284:	00 00 00 
  8004200287:	48 29 c2             	sub    %rax,%rdx
  800420028a:	48 89 d0             	mov    %rdx,%rax
  800420028d:	48 89 c2             	mov    %rax,%rdx
  8004200290:	48 8b 45 e0          	mov    -0x20(%rbp),%rax
  8004200294:	48 be 98 6f 21 04 80 	movabs $0x8004216f98,%rsi
  800420029b:	00 00 00 
  800420029e:	48 89 c7             	mov    %rax,%rdi
  80042002a1:	48 b8 36 0c 21 04 80 	movabs $0x8004210c36,%rax
  80042002a8:	00 00 00 
  80042002ab:	ff d0                	callq  *%rax
  80042002ad:	48 b8 20 f0 6d 04 80 	movabs $0x80046df020,%rax
  80042002b4:	00 00 00 
  80042002b7:	48 89 45 f8          	mov    %rax,-0x8(%rbp)
  80042002bb:	e9 0e 01 00 00       	jmpq   80042003ce <boot_aps+0x1d2>
  80042002c0:	48 b8 aa 7b 21 04 80 	movabs $0x8004217baa,%rax
  80042002c7:	00 00 00 
  80042002ca:	ff d0                	callq  *%rax
  80042002cc:	48 98                	cltq   
  80042002ce:	48 c1 e0 03          	shl    $0x3,%rax
  80042002d2:	48 89 c2             	mov    %rax,%rdx
  80042002d5:	48 c1 e2 04          	shl    $0x4,%rdx
  80042002d9:	48 01 c2             	add    %rax,%rdx
  80042002dc:	48 b8 20 f0 6d 04 80 	movabs $0x80046df020,%rax
  80042002e3:	00 00 00 
  80042002e6:	48 01 d0             	add    %rdx,%rax
  80042002e9:	48 3b 45 f8          	cmp    -0x8(%rbp),%rax
  80042002ed:	75 05                	jne    80042002f4 <boot_aps+0xf8>
  80042002ef:	e9 d2 00 00 00       	jmpq   80042003c6 <boot_aps+0x1ca>
  80042002f4:	48 8b 55 f8          	mov    -0x8(%rbp),%rdx
  80042002f8:	48 b8 20 f0 6d 04 80 	movabs $0x80046df020,%rax
  80042002ff:	00 00 00 
  8004200302:	48 29 c2             	sub    %rax,%rdx
  8004200305:	48 89 d0             	mov    %rdx,%rax
  8004200308:	48 c1 f8 03          	sar    $0x3,%rax
  800420030c:	48 89 c2             	mov    %rax,%rdx
  800420030f:	48 b8 f1 f0 f0 f0 f0 	movabs $0xf0f0f0f0f0f0f0f1,%rax
  8004200316:	f0 f0 f0 
  8004200319:	48 0f af c2          	imul   %rdx,%rax
  800420031d:	48 83 c0 01          	add    $0x1,%rax
  8004200321:	48 c1 e0 10          	shl    $0x10,%rax
  8004200325:	48 89 c2             	mov    %rax,%rdx
  8004200328:	48 b8 00 00 6e 04 80 	movabs $0x80046e0000,%rax
  800420032f:	00 00 00 
  8004200332:	48 01 c2             	add    %rax,%rdx
  8004200335:	48 b8 e0 d5 6d 04 80 	movabs $0x80046dd5e0,%rax
  800420033c:	00 00 00 
  800420033f:	48 89 10             	mov    %rdx,(%rax)
  8004200342:	48 8b 45 e0          	mov    -0x20(%rbp),%rax
  8004200346:	48 89 45 d8          	mov    %rax,-0x28(%rbp)
  800420034a:	48 b8 ff ff ff 03 80 	movabs $0x8003ffffff,%rax
  8004200351:	00 00 00 
  8004200354:	48 39 45 d8          	cmp    %rax,-0x28(%rbp)
  8004200358:	77 32                	ja     800420038c <boot_aps+0x190>
  800420035a:	48 8b 45 d8          	mov    -0x28(%rbp),%rax
  800420035e:	48 89 c1             	mov    %rax,%rcx
  8004200361:	48 ba b8 dd 21 04 80 	movabs $0x800421ddb8,%rdx
  8004200368:	00 00 00 
  800420036b:	be 0b 01 00 00       	mov    $0x10b,%esi
  8004200370:	48 bf a3 dd 21 04 80 	movabs $0x800421dda3,%rdi
  8004200377:	00 00 00 
  800420037a:	b8 00 00 00 00       	mov    $0x0,%eax
  800420037f:	49 b8 c9 04 20 04 80 	movabs $0x80042004c9,%r8
  8004200386:	00 00 00 
  8004200389:	41 ff d0             	callq  *%r8
  800420038c:	48 ba 00 00 00 fc 7f 	movabs $0xffffff7ffc000000,%rdx
  8004200393:	ff ff ff 
  8004200396:	48 8b 45 d8          	mov    -0x28(%rbp),%rax
  800420039a:	48 01 d0             	add    %rdx,%rax
  800420039d:	89 c2                	mov    %eax,%edx
  800420039f:	48 8b 45 f8          	mov    -0x8(%rbp),%rax
  80042003a3:	0f b6 00             	movzbl (%rax),%eax
  80042003a6:	0f b6 c0             	movzbl %al,%eax
  80042003a9:	89 d6                	mov    %edx,%esi
  80042003ab:	89 c7                	mov    %eax,%edi
  80042003ad:	48 b8 1a 7c 21 04 80 	movabs $0x8004217c1a,%rax
  80042003b4:	00 00 00 
  80042003b7:	ff d0                	callq  *%rax
  80042003b9:	90                   	nop
  80042003ba:	48 8b 45 f8          	mov    -0x8(%rbp),%rax
  80042003be:	8b 40 04             	mov    0x4(%rax),%eax
  80042003c1:	83 f8 01             	cmp    $0x1,%eax
  80042003c4:	75 f4                	jne    80042003ba <boot_aps+0x1be>
  80042003c6:	48 81 45 f8 88 00 00 	addq   $0x88,-0x8(%rbp)
  80042003cd:	00 
  80042003ce:	48 b8 48 f2 6d 04 80 	movabs $0x80046df248,%rax
  80042003d5:	00 00 00 
  80042003d8:	8b 00                	mov    (%rax),%eax
  80042003da:	48 98                	cltq   
  80042003dc:	48 c1 e0 03          	shl    $0x3,%rax
  80042003e0:	48 89 c2             	mov    %rax,%rdx
  80042003e3:	48 c1 e2 04          	shl    $0x4,%rdx
  80042003e7:	48 01 c2             	add    %rax,%rdx
  80042003ea:	48 b8 20 f0 6d 04 80 	movabs $0x80046df020,%rax
  80042003f1:	00 00 00 
  80042003f4:	48 01 d0             	add    %rdx,%rax
  80042003f7:	48 3b 45 f8          	cmp    -0x8(%rbp),%rax
  80042003fb:	0f 87 bf fe ff ff    	ja     80042002c0 <boot_aps+0xc4>
  8004200401:	c9                   	leaveq 
  8004200402:	c3                   	retq   

0000008004200403 <mp_main>:
  8004200403:	55                   	push   %rbp
  8004200404:	48 89 e5             	mov    %rsp,%rbp
  8004200407:	48 83 ec 10          	sub    $0x10,%rsp
  800420040b:	48 b8 e8 d5 6d 04 80 	movabs $0x80046dd5e8,%rax
  8004200412:	00 00 00 
  8004200415:	48 8b 00             	mov    (%rax),%rax
  8004200418:	48 89 45 f8          	mov    %rax,-0x8(%rbp)
}

static __inline void
lcr3(uint64_t val)
{
	__asm __volatile("movq %0,%%cr3" : : "r" (val));
  800420041c:	48 8b 45 f8          	mov    -0x8(%rbp),%rax
  8004200420:	0f 22 d8             	mov    %rax,%cr3
  8004200423:	48 b8 aa 7b 21 04 80 	movabs $0x8004217baa,%rax
  800420042a:	00 00 00 
  800420042d:	ff d0                	callq  *%rax
  800420042f:	89 c6                	mov    %eax,%esi
  8004200431:	48 bf dc dd 21 04 80 	movabs $0x800421dddc,%rdi
  8004200438:	00 00 00 
  800420043b:	b8 00 00 00 00       	mov    $0x0,%eax
  8004200440:	48 ba 77 9c 20 04 80 	movabs $0x8004209c77,%rdx
  8004200447:	00 00 00 
  800420044a:	ff d2                	callq  *%rdx
  800420044c:	48 b8 b3 79 21 04 80 	movabs $0x80042179b3,%rax
  8004200453:	00 00 00 
  8004200456:	ff d0                	callq  *%rax
  8004200458:	48 b8 2e 80 20 04 80 	movabs $0x800420802e,%rax
  800420045f:	00 00 00 
  8004200462:	ff d0                	callq  *%rax
  8004200464:	48 b8 f2 c4 20 04 80 	movabs $0x800420c4f2,%rax
  800420046b:	00 00 00 
  800420046e:	ff d0                	callq  *%rax
  8004200470:	48 b8 aa 7b 21 04 80 	movabs $0x8004217baa,%rax
  8004200477:	00 00 00 
  800420047a:	ff d0                	callq  *%rax
  800420047c:	48 98                	cltq   
  800420047e:	48 c1 e0 03          	shl    $0x3,%rax
  8004200482:	48 89 c2             	mov    %rax,%rdx
  8004200485:	48 c1 e2 04          	shl    $0x4,%rdx
  8004200489:	48 01 d0             	add    %rdx,%rax
  800420048c:	48 ba 20 f0 6d 04 80 	movabs $0x80046df020,%rdx
  8004200493:	00 00 00 
  8004200496:	48 01 d0             	add    %rdx,%rax
  8004200499:	48 83 c0 04          	add    $0x4,%rax
  800420049d:	be 01 00 00 00       	mov    $0x1,%esi
  80042004a2:	48 89 c7             	mov    %rax,%rdi
  80042004a5:	48 b8 58 00 20 04 80 	movabs $0x8004200058,%rax
  80042004ac:	00 00 00 
  80042004af:	ff d0                	callq  *%rax
  80042004b1:	48 b8 7d 00 20 04 80 	movabs $0x800420007d,%rax
  80042004b8:	00 00 00 
  80042004bb:	ff d0                	callq  *%rax
  80042004bd:	48 b8 66 da 20 04 80 	movabs $0x800420da66,%rax
  80042004c4:	00 00 00 
  80042004c7:	ff d0                	callq  *%rax

00000080042004c9 <_panic>:
  80042004c9:	55                   	push   %rbp
  80042004ca:	48 89 e5             	mov    %rsp,%rbp
  80042004cd:	48 81 ec f0 00 00 00 	sub    $0xf0,%rsp
  80042004d4:	48 89 bd 28 ff ff ff 	mov    %rdi,-0xd8(%rbp)
  80042004db:	89 b5 24 ff ff ff    	mov    %esi,-0xdc(%rbp)
  80042004e1:	48 89 8d 68 ff ff ff 	mov    %rcx,-0x98(%rbp)
  80042004e8:	4c 89 85 70 ff ff ff 	mov    %r8,-0x90(%rbp)
  80042004ef:	4c 89 8d 78 ff ff ff 	mov    %r9,-0x88(%rbp)
  80042004f6:	84 c0                	test   %al,%al
  80042004f8:	74 20                	je     800420051a <_panic+0x51>
  80042004fa:	0f 29 45 80          	movaps %xmm0,-0x80(%rbp)
  80042004fe:	0f 29 4d 90          	movaps %xmm1,-0x70(%rbp)
  8004200502:	0f 29 55 a0          	movaps %xmm2,-0x60(%rbp)
  8004200506:	0f 29 5d b0          	movaps %xmm3,-0x50(%rbp)
  800420050a:	0f 29 65 c0          	movaps %xmm4,-0x40(%rbp)
  800420050e:	0f 29 6d d0          	movaps %xmm5,-0x30(%rbp)
  8004200512:	0f 29 75 e0          	movaps %xmm6,-0x20(%rbp)
  8004200516:	0f 29 7d f0          	movaps %xmm7,-0x10(%rbp)
  800420051a:	48 89 95 18 ff ff ff 	mov    %rdx,-0xe8(%rbp)
  8004200521:	48 b8 d8 d5 6d 04 80 	movabs $0x80046dd5d8,%rax
  8004200528:	00 00 00 
  800420052b:	48 8b 00             	mov    (%rax),%rax
  800420052e:	48 85 c0             	test   %rax,%rax
  8004200531:	74 05                	je     8004200538 <_panic+0x6f>
  8004200533:	e9 b5 00 00 00       	jmpq   80042005ed <_panic+0x124>
  8004200538:	48 b8 d8 d5 6d 04 80 	movabs $0x80046dd5d8,%rax
  800420053f:	00 00 00 
  8004200542:	48 8b 95 18 ff ff ff 	mov    -0xe8(%rbp),%rdx
  8004200549:	48 89 10             	mov    %rdx,(%rax)
  800420054c:	fa                   	cli    
  800420054d:	fc                   	cld    
  800420054e:	c7 85 38 ff ff ff 18 	movl   $0x18,-0xc8(%rbp)
  8004200555:	00 00 00 
  8004200558:	c7 85 3c ff ff ff 30 	movl   $0x30,-0xc4(%rbp)
  800420055f:	00 00 00 
  8004200562:	48 8d 45 10          	lea    0x10(%rbp),%rax
  8004200566:	48 89 85 40 ff ff ff 	mov    %rax,-0xc0(%rbp)
  800420056d:	48 8d 85 50 ff ff ff 	lea    -0xb0(%rbp),%rax
  8004200574:	48 89 85 48 ff ff ff 	mov    %rax,-0xb8(%rbp)
  800420057b:	48 b8 aa 7b 21 04 80 	movabs $0x8004217baa,%rax
  8004200582:	00 00 00 
  8004200585:	ff d0                	callq  *%rax
  8004200587:	8b 8d 24 ff ff ff    	mov    -0xdc(%rbp),%ecx
  800420058d:	48 8b 95 28 ff ff ff 	mov    -0xd8(%rbp),%rdx
  8004200594:	89 c6                	mov    %eax,%esi
  8004200596:	48 bf f8 dd 21 04 80 	movabs $0x800421ddf8,%rdi
  800420059d:	00 00 00 
  80042005a0:	b8 00 00 00 00       	mov    $0x0,%eax
  80042005a5:	49 b8 77 9c 20 04 80 	movabs $0x8004209c77,%r8
  80042005ac:	00 00 00 
  80042005af:	41 ff d0             	callq  *%r8
  80042005b2:	48 8d 95 38 ff ff ff 	lea    -0xc8(%rbp),%rdx
  80042005b9:	48 8b 85 18 ff ff ff 	mov    -0xe8(%rbp),%rax
  80042005c0:	48 89 d6             	mov    %rdx,%rsi
  80042005c3:	48 89 c7             	mov    %rax,%rdi
  80042005c6:	48 b8 18 9c 20 04 80 	movabs $0x8004209c18,%rax
  80042005cd:	00 00 00 
  80042005d0:	ff d0                	callq  *%rax
  80042005d2:	48 bf 1a de 21 04 80 	movabs $0x800421de1a,%rdi
  80042005d9:	00 00 00 
  80042005dc:	b8 00 00 00 00       	mov    $0x0,%eax
  80042005e1:	48 ba 77 9c 20 04 80 	movabs $0x8004209c77,%rdx
  80042005e8:	00 00 00 
  80042005eb:	ff d2                	callq  *%rdx
  80042005ed:	bf 00 00 00 00       	mov    $0x0,%edi
  80042005f2:	48 b8 51 1a 20 04 80 	movabs $0x8004201a51,%rax
  80042005f9:	00 00 00 
  80042005fc:	ff d0                	callq  *%rax
  80042005fe:	eb ed                	jmp    80042005ed <_panic+0x124>

0000008004200600 <_warn>:
  8004200600:	55                   	push   %rbp
  8004200601:	48 89 e5             	mov    %rsp,%rbp
  8004200604:	48 81 ec f0 00 00 00 	sub    $0xf0,%rsp
  800420060b:	48 89 bd 28 ff ff ff 	mov    %rdi,-0xd8(%rbp)
  8004200612:	89 b5 24 ff ff ff    	mov    %esi,-0xdc(%rbp)
  8004200618:	48 89 8d 68 ff ff ff 	mov    %rcx,-0x98(%rbp)
  800420061f:	4c 89 85 70 ff ff ff 	mov    %r8,-0x90(%rbp)
  8004200626:	4c 89 8d 78 ff ff ff 	mov    %r9,-0x88(%rbp)
  800420062d:	84 c0                	test   %al,%al
  800420062f:	74 20                	je     8004200651 <_warn+0x51>
  8004200631:	0f 29 45 80          	movaps %xmm0,-0x80(%rbp)
  8004200635:	0f 29 4d 90          	movaps %xmm1,-0x70(%rbp)
  8004200639:	0f 29 55 a0          	movaps %xmm2,-0x60(%rbp)
  800420063d:	0f 29 5d b0          	movaps %xmm3,-0x50(%rbp)
  8004200641:	0f 29 65 c0          	movaps %xmm4,-0x40(%rbp)
  8004200645:	0f 29 6d d0          	movaps %xmm5,-0x30(%rbp)
  8004200649:	0f 29 75 e0          	movaps %xmm6,-0x20(%rbp)
  800420064d:	0f 29 7d f0          	movaps %xmm7,-0x10(%rbp)
  8004200651:	48 89 95 18 ff ff ff 	mov    %rdx,-0xe8(%rbp)
  8004200658:	c7 85 38 ff ff ff 18 	movl   $0x18,-0xc8(%rbp)
  800420065f:	00 00 00 
  8004200662:	c7 85 3c ff ff ff 30 	movl   $0x30,-0xc4(%rbp)
  8004200669:	00 00 00 
  800420066c:	48 8d 45 10          	lea    0x10(%rbp),%rax
  8004200670:	48 89 85 40 ff ff ff 	mov    %rax,-0xc0(%rbp)
  8004200677:	48 8d 85 50 ff ff ff 	lea    -0xb0(%rbp),%rax
  800420067e:	48 89 85 48 ff ff ff 	mov    %rax,-0xb8(%rbp)
  8004200685:	8b 95 24 ff ff ff    	mov    -0xdc(%rbp),%edx
  800420068b:	48 8b 85 28 ff ff ff 	mov    -0xd8(%rbp),%rax
  8004200692:	48 89 c6             	mov    %rax,%rsi
  8004200695:	48 bf 1c de 21 04 80 	movabs $0x800421de1c,%rdi
  800420069c:	00 00 00 
  800420069f:	b8 00 00 00 00       	mov    $0x0,%eax
  80042006a4:	48 b9 77 9c 20 04 80 	movabs $0x8004209c77,%rcx
  80042006ab:	00 00 00 
  80042006ae:	ff d1                	callq  *%rcx
  80042006b0:	48 8d 95 38 ff ff ff 	lea    -0xc8(%rbp),%rdx
  80042006b7:	48 8b 85 18 ff ff ff 	mov    -0xe8(%rbp),%rax
  80042006be:	48 89 d6             	mov    %rdx,%rsi
  80042006c1:	48 89 c7             	mov    %rax,%rdi
  80042006c4:	48 b8 18 9c 20 04 80 	movabs $0x8004209c18,%rax
  80042006cb:	00 00 00 
  80042006ce:	ff d0                	callq  *%rax
  80042006d0:	48 bf 1a de 21 04 80 	movabs $0x800421de1a,%rdi
  80042006d7:	00 00 00 
  80042006da:	b8 00 00 00 00       	mov    $0x0,%eax
  80042006df:	48 ba 77 9c 20 04 80 	movabs $0x8004209c77,%rdx
  80042006e6:	00 00 00 
  80042006e9:	ff d2                	callq  *%rdx
  80042006eb:	c9                   	leaveq 
  80042006ec:	c3                   	retq   

00000080042006ed <delay>:
  80042006ed:	55                   	push   %rbp
  80042006ee:	48 89 e5             	mov    %rsp,%rbp
  80042006f1:	48 83 ec 20          	sub    $0x20,%rsp
  80042006f5:	c7 45 fc 84 00 00 00 	movl   $0x84,-0x4(%rbp)

static __inline uint8_t
inb(int port)
{
	uint8_t data;
	__asm __volatile("inb %w1,%0" : "=a" (data) : "d" (port));
  80042006fc:	8b 45 fc             	mov    -0x4(%rbp),%eax
  80042006ff:	89 c2                	mov    %eax,%edx
  8004200701:	ec                   	in     (%dx),%al
  8004200702:	88 45 fb             	mov    %al,-0x5(%rbp)
  8004200705:	c7 45 f4 84 00 00 00 	movl   $0x84,-0xc(%rbp)
  800420070c:	8b 45 f4             	mov    -0xc(%rbp),%eax
  800420070f:	89 c2                	mov    %eax,%edx
  8004200711:	ec                   	in     (%dx),%al
  8004200712:	88 45 f3             	mov    %al,-0xd(%rbp)
  8004200715:	c7 45 ec 84 00 00 00 	movl   $0x84,-0x14(%rbp)
  800420071c:	8b 45 ec             	mov    -0x14(%rbp),%eax
  800420071f:	89 c2                	mov    %eax,%edx
  8004200721:	ec                   	in     (%dx),%al
  8004200722:	88 45 eb             	mov    %al,-0x15(%rbp)
  8004200725:	c7 45 e4 84 00 00 00 	movl   $0x84,-0x1c(%rbp)
  800420072c:	8b 45 e4             	mov    -0x1c(%rbp),%eax
  800420072f:	89 c2                	mov    %eax,%edx
  8004200731:	ec                   	in     (%dx),%al
  8004200732:	88 45 e3             	mov    %al,-0x1d(%rbp)
  8004200735:	c9                   	leaveq 
  8004200736:	c3                   	retq   

0000008004200737 <serial_proc_data>:
  8004200737:	55                   	push   %rbp
  8004200738:	48 89 e5             	mov    %rsp,%rbp
  800420073b:	48 83 ec 10          	sub    $0x10,%rsp
  800420073f:	c7 45 fc fd 03 00 00 	movl   $0x3fd,-0x4(%rbp)
  8004200746:	8b 45 fc             	mov    -0x4(%rbp),%eax
  8004200749:	89 c2                	mov    %eax,%edx
  800420074b:	ec                   	in     (%dx),%al
  800420074c:	88 45 fb             	mov    %al,-0x5(%rbp)
	return data;
  800420074f:	0f b6 45 fb          	movzbl -0x5(%rbp),%eax
  8004200753:	0f b6 c0             	movzbl %al,%eax
  8004200756:	83 e0 01             	and    $0x1,%eax
  8004200759:	85 c0                	test   %eax,%eax
  800420075b:	75 07                	jne    8004200764 <serial_proc_data+0x2d>
  800420075d:	b8 ff ff ff ff       	mov    $0xffffffff,%eax
  8004200762:	eb 17                	jmp    800420077b <serial_proc_data+0x44>
  8004200764:	c7 45 f4 f8 03 00 00 	movl   $0x3f8,-0xc(%rbp)

static __inline uint8_t
inb(int port)
{
	uint8_t data;
	__asm __volatile("inb %w1,%0" : "=a" (data) : "d" (port));
  800420076b:	8b 45 f4             	mov    -0xc(%rbp),%eax
  800420076e:	89 c2                	mov    %eax,%edx
  8004200770:	ec                   	in     (%dx),%al
  8004200771:	88 45 f3             	mov    %al,-0xd(%rbp)
	return data;
  8004200774:	0f b6 45 f3          	movzbl -0xd(%rbp),%eax
  8004200778:	0f b6 c0             	movzbl %al,%eax
  800420077b:	c9                   	leaveq 
  800420077c:	c3                   	retq   

000000800420077d <serial_intr>:
  800420077d:	55                   	push   %rbp
  800420077e:	48 89 e5             	mov    %rsp,%rbp
  8004200781:	48 b8 00 e0 4d 04 80 	movabs $0x80044de000,%rax
  8004200788:	00 00 00 
  800420078b:	0f b6 00             	movzbl (%rax),%eax
  800420078e:	84 c0                	test   %al,%al
  8004200790:	74 16                	je     80042007a8 <serial_intr+0x2b>
  8004200792:	48 bf 37 07 20 04 80 	movabs $0x8004200737,%rdi
  8004200799:	00 00 00 
  800420079c:	48 b8 1d 10 20 04 80 	movabs $0x800420101d,%rax
  80042007a3:	00 00 00 
  80042007a6:	ff d0                	callq  *%rax
  80042007a8:	5d                   	pop    %rbp
  80042007a9:	c3                   	retq   

00000080042007aa <serial_putc>:
  80042007aa:	55                   	push   %rbp
  80042007ab:	48 89 e5             	mov    %rsp,%rbp
  80042007ae:	48 83 ec 28          	sub    $0x28,%rsp
  80042007b2:	89 7d dc             	mov    %edi,-0x24(%rbp)
  80042007b5:	c7 45 fc 00 00 00 00 	movl   $0x0,-0x4(%rbp)
  80042007bc:	eb 10                	jmp    80042007ce <serial_putc+0x24>
  80042007be:	48 b8 ed 06 20 04 80 	movabs $0x80042006ed,%rax
  80042007c5:	00 00 00 
  80042007c8:	ff d0                	callq  *%rax
  80042007ca:	83 45 fc 01          	addl   $0x1,-0x4(%rbp)
  80042007ce:	c7 45 f8 fd 03 00 00 	movl   $0x3fd,-0x8(%rbp)

static __inline uint8_t
inb(int port)
{
	uint8_t data;
	__asm __volatile("inb %w1,%0" : "=a" (data) : "d" (port));
  80042007d5:	8b 45 f8             	mov    -0x8(%rbp),%eax
  80042007d8:	89 c2                	mov    %eax,%edx
  80042007da:	ec                   	in     (%dx),%al
  80042007db:	88 45 f7             	mov    %al,-0x9(%rbp)
	return data;
  80042007de:	0f b6 45 f7          	movzbl -0x9(%rbp),%eax
  80042007e2:	0f b6 c0             	movzbl %al,%eax
  80042007e5:	83 e0 20             	and    $0x20,%eax
  80042007e8:	85 c0                	test   %eax,%eax
  80042007ea:	75 09                	jne    80042007f5 <serial_putc+0x4b>
  80042007ec:	81 7d fc ff 31 00 00 	cmpl   $0x31ff,-0x4(%rbp)
  80042007f3:	7e c9                	jle    80042007be <serial_putc+0x14>
  80042007f5:	8b 45 dc             	mov    -0x24(%rbp),%eax
  80042007f8:	0f b6 c0             	movzbl %al,%eax
  80042007fb:	c7 45 f0 f8 03 00 00 	movl   $0x3f8,-0x10(%rbp)
  8004200802:	88 45 ef             	mov    %al,-0x11(%rbp)
}

static __inline void
outb(int port, uint8_t data)
{
	__asm __volatile("outb %0,%w1" : : "a" (data), "d" (port));
  8004200805:	0f b6 45 ef          	movzbl -0x11(%rbp),%eax
  8004200809:	8b 55 f0             	mov    -0x10(%rbp),%edx
  800420080c:	ee                   	out    %al,(%dx)
  800420080d:	c9                   	leaveq 
  800420080e:	c3                   	retq   

000000800420080f <serial_init>:
  800420080f:	55                   	push   %rbp
  8004200810:	48 89 e5             	mov    %rsp,%rbp
  8004200813:	48 83 ec 50          	sub    $0x50,%rsp
  8004200817:	c7 45 fc fa 03 00 00 	movl   $0x3fa,-0x4(%rbp)
  800420081e:	c6 45 fb 00          	movb   $0x0,-0x5(%rbp)
  8004200822:	0f b6 45 fb          	movzbl -0x5(%rbp),%eax
  8004200826:	8b 55 fc             	mov    -0x4(%rbp),%edx
  8004200829:	ee                   	out    %al,(%dx)
  800420082a:	c7 45 f4 fb 03 00 00 	movl   $0x3fb,-0xc(%rbp)
  8004200831:	c6 45 f3 80          	movb   $0x80,-0xd(%rbp)
  8004200835:	0f b6 45 f3          	movzbl -0xd(%rbp),%eax
  8004200839:	8b 55 f4             	mov    -0xc(%rbp),%edx
  800420083c:	ee                   	out    %al,(%dx)
  800420083d:	c7 45 ec f8 03 00 00 	movl   $0x3f8,-0x14(%rbp)
  8004200844:	c6 45 eb 0c          	movb   $0xc,-0x15(%rbp)
  8004200848:	0f b6 45 eb          	movzbl -0x15(%rbp),%eax
  800420084c:	8b 55 ec             	mov    -0x14(%rbp),%edx
  800420084f:	ee                   	out    %al,(%dx)
  8004200850:	c7 45 e4 f9 03 00 00 	movl   $0x3f9,-0x1c(%rbp)
  8004200857:	c6 45 e3 00          	movb   $0x0,-0x1d(%rbp)
  800420085b:	0f b6 45 e3          	movzbl -0x1d(%rbp),%eax
  800420085f:	8b 55 e4             	mov    -0x1c(%rbp),%edx
  8004200862:	ee                   	out    %al,(%dx)
  8004200863:	c7 45 dc fb 03 00 00 	movl   $0x3fb,-0x24(%rbp)
  800420086a:	c6 45 db 03          	movb   $0x3,-0x25(%rbp)
  800420086e:	0f b6 45 db          	movzbl -0x25(%rbp),%eax
  8004200872:	8b 55 dc             	mov    -0x24(%rbp),%edx
  8004200875:	ee                   	out    %al,(%dx)
  8004200876:	c7 45 d4 fc 03 00 00 	movl   $0x3fc,-0x2c(%rbp)
  800420087d:	c6 45 d3 00          	movb   $0x0,-0x2d(%rbp)
  8004200881:	0f b6 45 d3          	movzbl -0x2d(%rbp),%eax
  8004200885:	8b 55 d4             	mov    -0x2c(%rbp),%edx
  8004200888:	ee                   	out    %al,(%dx)
  8004200889:	c7 45 cc f9 03 00 00 	movl   $0x3f9,-0x34(%rbp)
  8004200890:	c6 45 cb 01          	movb   $0x1,-0x35(%rbp)
  8004200894:	0f b6 45 cb          	movzbl -0x35(%rbp),%eax
  8004200898:	8b 55 cc             	mov    -0x34(%rbp),%edx
  800420089b:	ee                   	out    %al,(%dx)
  800420089c:	c7 45 c4 fd 03 00 00 	movl   $0x3fd,-0x3c(%rbp)

static __inline uint8_t
inb(int port)
{
	uint8_t data;
	__asm __volatile("inb %w1,%0" : "=a" (data) : "d" (port));
  80042008a3:	8b 45 c4             	mov    -0x3c(%rbp),%eax
  80042008a6:	89 c2                	mov    %eax,%edx
  80042008a8:	ec                   	in     (%dx),%al
  80042008a9:	88 45 c3             	mov    %al,-0x3d(%rbp)
	return data;
  80042008ac:	0f b6 45 c3          	movzbl -0x3d(%rbp),%eax
  80042008b0:	3c ff                	cmp    $0xff,%al
  80042008b2:	0f 95 c2             	setne  %dl
  80042008b5:	48 b8 00 e0 4d 04 80 	movabs $0x80044de000,%rax
  80042008bc:	00 00 00 
  80042008bf:	88 10                	mov    %dl,(%rax)
  80042008c1:	c7 45 bc fa 03 00 00 	movl   $0x3fa,-0x44(%rbp)

static __inline uint8_t
inb(int port)
{
	uint8_t data;
	__asm __volatile("inb %w1,%0" : "=a" (data) : "d" (port));
  80042008c8:	8b 45 bc             	mov    -0x44(%rbp),%eax
  80042008cb:	89 c2                	mov    %eax,%edx
  80042008cd:	ec                   	in     (%dx),%al
  80042008ce:	88 45 bb             	mov    %al,-0x45(%rbp)
  80042008d1:	c7 45 b4 f8 03 00 00 	movl   $0x3f8,-0x4c(%rbp)
  80042008d8:	8b 45 b4             	mov    -0x4c(%rbp),%eax
  80042008db:	89 c2                	mov    %eax,%edx
  80042008dd:	ec                   	in     (%dx),%al
  80042008de:	88 45 b3             	mov    %al,-0x4d(%rbp)
  80042008e1:	48 b8 00 e0 4d 04 80 	movabs $0x80044de000,%rax
  80042008e8:	00 00 00 
  80042008eb:	0f b6 00             	movzbl (%rax),%eax
  80042008ee:	84 c0                	test   %al,%al
  80042008f0:	74 23                	je     8004200915 <serial_init+0x106>
  80042008f2:	48 b8 72 56 23 04 80 	movabs $0x8004235672,%rax
  80042008f9:	00 00 00 
  80042008fc:	0f b7 00             	movzwl (%rax),%eax
  80042008ff:	0f b7 c0             	movzwl %ax,%eax
  8004200902:	25 ef ff 00 00       	and    $0xffef,%eax
  8004200907:	89 c7                	mov    %eax,%edi
  8004200909:	48 b8 c9 9a 20 04 80 	movabs $0x8004209ac9,%rax
  8004200910:	00 00 00 
  8004200913:	ff d0                	callq  *%rax
  8004200915:	c9                   	leaveq 
  8004200916:	c3                   	retq   

0000008004200917 <lpt_putc>:
  8004200917:	55                   	push   %rbp
  8004200918:	48 89 e5             	mov    %rsp,%rbp
  800420091b:	48 83 ec 38          	sub    $0x38,%rsp
  800420091f:	89 7d cc             	mov    %edi,-0x34(%rbp)
  8004200922:	c7 45 fc 00 00 00 00 	movl   $0x0,-0x4(%rbp)
  8004200929:	eb 10                	jmp    800420093b <lpt_putc+0x24>
  800420092b:	48 b8 ed 06 20 04 80 	movabs $0x80042006ed,%rax
  8004200932:	00 00 00 
  8004200935:	ff d0                	callq  *%rax
  8004200937:	83 45 fc 01          	addl   $0x1,-0x4(%rbp)
  800420093b:	c7 45 f8 79 03 00 00 	movl   $0x379,-0x8(%rbp)
  8004200942:	8b 45 f8             	mov    -0x8(%rbp),%eax
  8004200945:	89 c2                	mov    %eax,%edx
  8004200947:	ec                   	in     (%dx),%al
  8004200948:	88 45 f7             	mov    %al,-0x9(%rbp)
	return data;
  800420094b:	0f b6 45 f7          	movzbl -0x9(%rbp),%eax
  800420094f:	84 c0                	test   %al,%al
  8004200951:	78 09                	js     800420095c <lpt_putc+0x45>
  8004200953:	81 7d fc ff 31 00 00 	cmpl   $0x31ff,-0x4(%rbp)
  800420095a:	7e cf                	jle    800420092b <lpt_putc+0x14>
  800420095c:	8b 45 cc             	mov    -0x34(%rbp),%eax
  800420095f:	0f b6 c0             	movzbl %al,%eax
  8004200962:	c7 45 f0 78 03 00 00 	movl   $0x378,-0x10(%rbp)
  8004200969:	88 45 ef             	mov    %al,-0x11(%rbp)
}

static __inline void
outb(int port, uint8_t data)
{
	__asm __volatile("outb %0,%w1" : : "a" (data), "d" (port));
  800420096c:	0f b6 45 ef          	movzbl -0x11(%rbp),%eax
  8004200970:	8b 55 f0             	mov    -0x10(%rbp),%edx
  8004200973:	ee                   	out    %al,(%dx)
  8004200974:	c7 45 e8 7a 03 00 00 	movl   $0x37a,-0x18(%rbp)
  800420097b:	c6 45 e7 0d          	movb   $0xd,-0x19(%rbp)
  800420097f:	0f b6 45 e7          	movzbl -0x19(%rbp),%eax
  8004200983:	8b 55 e8             	mov    -0x18(%rbp),%edx
  8004200986:	ee                   	out    %al,(%dx)
  8004200987:	c7 45 e0 7a 03 00 00 	movl   $0x37a,-0x20(%rbp)
  800420098e:	c6 45 df 08          	movb   $0x8,-0x21(%rbp)
  8004200992:	0f b6 45 df          	movzbl -0x21(%rbp),%eax
  8004200996:	8b 55 e0             	mov    -0x20(%rbp),%edx
  8004200999:	ee                   	out    %al,(%dx)
  800420099a:	c9                   	leaveq 
  800420099b:	c3                   	retq   

000000800420099c <cga_init>:
  800420099c:	55                   	push   %rbp
  800420099d:	48 89 e5             	mov    %rsp,%rbp
  80042009a0:	48 83 ec 30          	sub    $0x30,%rsp
  80042009a4:	48 b8 00 80 0b 04 80 	movabs $0x80040b8000,%rax
  80042009ab:	00 00 00 
  80042009ae:	48 89 45 f8          	mov    %rax,-0x8(%rbp)
  80042009b2:	48 8b 45 f8          	mov    -0x8(%rbp),%rax
  80042009b6:	0f b7 00             	movzwl (%rax),%eax
  80042009b9:	66 89 45 f6          	mov    %ax,-0xa(%rbp)
  80042009bd:	48 8b 45 f8          	mov    -0x8(%rbp),%rax
  80042009c1:	66 c7 00 5a a5       	movw   $0xa55a,(%rax)
  80042009c6:	48 8b 45 f8          	mov    -0x8(%rbp),%rax
  80042009ca:	0f b7 00             	movzwl (%rax),%eax
  80042009cd:	66 3d 5a a5          	cmp    $0xa55a,%ax
  80042009d1:	74 20                	je     80042009f3 <cga_init+0x57>
  80042009d3:	48 b8 00 00 0b 04 80 	movabs $0x80040b0000,%rax
  80042009da:	00 00 00 
  80042009dd:	48 89 45 f8          	mov    %rax,-0x8(%rbp)
  80042009e1:	48 b8 04 e0 4d 04 80 	movabs $0x80044de004,%rax
  80042009e8:	00 00 00 
  80042009eb:	c7 00 b4 03 00 00    	movl   $0x3b4,(%rax)
  80042009f1:	eb 1b                	jmp    8004200a0e <cga_init+0x72>
  80042009f3:	48 8b 45 f8          	mov    -0x8(%rbp),%rax
  80042009f7:	0f b7 55 f6          	movzwl -0xa(%rbp),%edx
  80042009fb:	66 89 10             	mov    %dx,(%rax)
  80042009fe:	48 b8 04 e0 4d 04 80 	movabs $0x80044de004,%rax
  8004200a05:	00 00 00 
  8004200a08:	c7 00 d4 03 00 00    	movl   $0x3d4,(%rax)
  8004200a0e:	48 b8 04 e0 4d 04 80 	movabs $0x80044de004,%rax
  8004200a15:	00 00 00 
  8004200a18:	8b 00                	mov    (%rax),%eax
  8004200a1a:	89 45 ec             	mov    %eax,-0x14(%rbp)
  8004200a1d:	c6 45 eb 0e          	movb   $0xe,-0x15(%rbp)
  8004200a21:	0f b6 45 eb          	movzbl -0x15(%rbp),%eax
  8004200a25:	8b 55 ec             	mov    -0x14(%rbp),%edx
  8004200a28:	ee                   	out    %al,(%dx)
  8004200a29:	48 b8 04 e0 4d 04 80 	movabs $0x80044de004,%rax
  8004200a30:	00 00 00 
  8004200a33:	8b 00                	mov    (%rax),%eax
  8004200a35:	83 c0 01             	add    $0x1,%eax
  8004200a38:	89 45 e4             	mov    %eax,-0x1c(%rbp)

static __inline uint8_t
inb(int port)
{
	uint8_t data;
	__asm __volatile("inb %w1,%0" : "=a" (data) : "d" (port));
  8004200a3b:	8b 45 e4             	mov    -0x1c(%rbp),%eax
  8004200a3e:	89 c2                	mov    %eax,%edx
  8004200a40:	ec                   	in     (%dx),%al
  8004200a41:	88 45 e3             	mov    %al,-0x1d(%rbp)
	return data;
  8004200a44:	0f b6 45 e3          	movzbl -0x1d(%rbp),%eax
  8004200a48:	0f b6 c0             	movzbl %al,%eax
  8004200a4b:	c1 e0 08             	shl    $0x8,%eax
  8004200a4e:	89 45 f0             	mov    %eax,-0x10(%rbp)
  8004200a51:	48 b8 04 e0 4d 04 80 	movabs $0x80044de004,%rax
  8004200a58:	00 00 00 
  8004200a5b:	8b 00                	mov    (%rax),%eax
  8004200a5d:	89 45 dc             	mov    %eax,-0x24(%rbp)
  8004200a60:	c6 45 db 0f          	movb   $0xf,-0x25(%rbp)
}

static __inline void
outb(int port, uint8_t data)
{
	__asm __volatile("outb %0,%w1" : : "a" (data), "d" (port));
  8004200a64:	0f b6 45 db          	movzbl -0x25(%rbp),%eax
  8004200a68:	8b 55 dc             	mov    -0x24(%rbp),%edx
  8004200a6b:	ee                   	out    %al,(%dx)
  8004200a6c:	48 b8 04 e0 4d 04 80 	movabs $0x80044de004,%rax
  8004200a73:	00 00 00 
  8004200a76:	8b 00                	mov    (%rax),%eax
  8004200a78:	83 c0 01             	add    $0x1,%eax
  8004200a7b:	89 45 d4             	mov    %eax,-0x2c(%rbp)

static __inline uint8_t
inb(int port)
{
	uint8_t data;
	__asm __volatile("inb %w1,%0" : "=a" (data) : "d" (port));
  8004200a7e:	8b 45 d4             	mov    -0x2c(%rbp),%eax
  8004200a81:	89 c2                	mov    %eax,%edx
  8004200a83:	ec                   	in     (%dx),%al
  8004200a84:	88 45 d3             	mov    %al,-0x2d(%rbp)
	return data;
  8004200a87:	0f b6 45 d3          	movzbl -0x2d(%rbp),%eax
  8004200a8b:	0f b6 c0             	movzbl %al,%eax
  8004200a8e:	09 45 f0             	or     %eax,-0x10(%rbp)
  8004200a91:	48 b8 08 e0 4d 04 80 	movabs $0x80044de008,%rax
  8004200a98:	00 00 00 
  8004200a9b:	48 8b 55 f8          	mov    -0x8(%rbp),%rdx
  8004200a9f:	48 89 10             	mov    %rdx,(%rax)
  8004200aa2:	8b 45 f0             	mov    -0x10(%rbp),%eax
  8004200aa5:	89 c2                	mov    %eax,%edx
  8004200aa7:	48 b8 10 e0 4d 04 80 	movabs $0x80044de010,%rax
  8004200aae:	00 00 00 
  8004200ab1:	66 89 10             	mov    %dx,(%rax)
  8004200ab4:	c9                   	leaveq 
  8004200ab5:	c3                   	retq   

0000008004200ab6 <cga_putc>:
  8004200ab6:	55                   	push   %rbp
  8004200ab7:	48 89 e5             	mov    %rsp,%rbp
  8004200aba:	48 83 ec 40          	sub    $0x40,%rsp
  8004200abe:	89 7d cc             	mov    %edi,-0x34(%rbp)
  8004200ac1:	8b 45 cc             	mov    -0x34(%rbp),%eax
  8004200ac4:	b0 00                	mov    $0x0,%al
  8004200ac6:	85 c0                	test   %eax,%eax
  8004200ac8:	75 07                	jne    8004200ad1 <cga_putc+0x1b>
  8004200aca:	81 4d cc 00 07 00 00 	orl    $0x700,-0x34(%rbp)
  8004200ad1:	8b 45 cc             	mov    -0x34(%rbp),%eax
  8004200ad4:	0f b6 c0             	movzbl %al,%eax
  8004200ad7:	83 f8 09             	cmp    $0x9,%eax
  8004200ada:	0f 84 f6 00 00 00    	je     8004200bd6 <cga_putc+0x120>
  8004200ae0:	83 f8 09             	cmp    $0x9,%eax
  8004200ae3:	7f 0a                	jg     8004200aef <cga_putc+0x39>
  8004200ae5:	83 f8 08             	cmp    $0x8,%eax
  8004200ae8:	74 18                	je     8004200b02 <cga_putc+0x4c>
  8004200aea:	e9 3e 01 00 00       	jmpq   8004200c2d <cga_putc+0x177>
  8004200aef:	83 f8 0a             	cmp    $0xa,%eax
  8004200af2:	74 75                	je     8004200b69 <cga_putc+0xb3>
  8004200af4:	83 f8 0d             	cmp    $0xd,%eax
  8004200af7:	0f 84 89 00 00 00    	je     8004200b86 <cga_putc+0xd0>
  8004200afd:	e9 2b 01 00 00       	jmpq   8004200c2d <cga_putc+0x177>
  8004200b02:	48 b8 10 e0 4d 04 80 	movabs $0x80044de010,%rax
  8004200b09:	00 00 00 
  8004200b0c:	0f b7 00             	movzwl (%rax),%eax
  8004200b0f:	66 85 c0             	test   %ax,%ax
  8004200b12:	74 50                	je     8004200b64 <cga_putc+0xae>
  8004200b14:	48 b8 10 e0 4d 04 80 	movabs $0x80044de010,%rax
  8004200b1b:	00 00 00 
  8004200b1e:	0f b7 00             	movzwl (%rax),%eax
  8004200b21:	8d 50 ff             	lea    -0x1(%rax),%edx
  8004200b24:	48 b8 10 e0 4d 04 80 	movabs $0x80044de010,%rax
  8004200b2b:	00 00 00 
  8004200b2e:	66 89 10             	mov    %dx,(%rax)
  8004200b31:	48 b8 08 e0 4d 04 80 	movabs $0x80044de008,%rax
  8004200b38:	00 00 00 
  8004200b3b:	48 8b 10             	mov    (%rax),%rdx
  8004200b3e:	48 b8 10 e0 4d 04 80 	movabs $0x80044de010,%rax
  8004200b45:	00 00 00 
  8004200b48:	0f b7 00             	movzwl (%rax),%eax
  8004200b4b:	0f b7 c0             	movzwl %ax,%eax
  8004200b4e:	48 01 c0             	add    %rax,%rax
  8004200b51:	48 01 c2             	add    %rax,%rdx
  8004200b54:	8b 45 cc             	mov    -0x34(%rbp),%eax
  8004200b57:	b0 00                	mov    $0x0,%al
  8004200b59:	83 c8 20             	or     $0x20,%eax
  8004200b5c:	66 89 02             	mov    %ax,(%rdx)
  8004200b5f:	e9 04 01 00 00       	jmpq   8004200c68 <cga_putc+0x1b2>
  8004200b64:	e9 ff 00 00 00       	jmpq   8004200c68 <cga_putc+0x1b2>
  8004200b69:	48 b8 10 e0 4d 04 80 	movabs $0x80044de010,%rax
  8004200b70:	00 00 00 
  8004200b73:	0f b7 00             	movzwl (%rax),%eax
  8004200b76:	8d 50 50             	lea    0x50(%rax),%edx
  8004200b79:	48 b8 10 e0 4d 04 80 	movabs $0x80044de010,%rax
  8004200b80:	00 00 00 
  8004200b83:	66 89 10             	mov    %dx,(%rax)
  8004200b86:	48 b8 10 e0 4d 04 80 	movabs $0x80044de010,%rax
  8004200b8d:	00 00 00 
  8004200b90:	0f b7 30             	movzwl (%rax),%esi
  8004200b93:	48 b8 10 e0 4d 04 80 	movabs $0x80044de010,%rax
  8004200b9a:	00 00 00 
  8004200b9d:	0f b7 08             	movzwl (%rax),%ecx
  8004200ba0:	0f b7 c1             	movzwl %cx,%eax
  8004200ba3:	69 c0 cd cc 00 00    	imul   $0xcccd,%eax,%eax
  8004200ba9:	c1 e8 10             	shr    $0x10,%eax
  8004200bac:	89 c2                	mov    %eax,%edx
  8004200bae:	66 c1 ea 06          	shr    $0x6,%dx
  8004200bb2:	89 d0                	mov    %edx,%eax
  8004200bb4:	c1 e0 02             	shl    $0x2,%eax
  8004200bb7:	01 d0                	add    %edx,%eax
  8004200bb9:	c1 e0 04             	shl    $0x4,%eax
  8004200bbc:	29 c1                	sub    %eax,%ecx
  8004200bbe:	89 ca                	mov    %ecx,%edx
  8004200bc0:	29 d6                	sub    %edx,%esi
  8004200bc2:	89 f2                	mov    %esi,%edx
  8004200bc4:	48 b8 10 e0 4d 04 80 	movabs $0x80044de010,%rax
  8004200bcb:	00 00 00 
  8004200bce:	66 89 10             	mov    %dx,(%rax)
  8004200bd1:	e9 92 00 00 00       	jmpq   8004200c68 <cga_putc+0x1b2>
  8004200bd6:	bf 20 00 00 00       	mov    $0x20,%edi
  8004200bdb:	48 b8 5a 11 20 04 80 	movabs $0x800420115a,%rax
  8004200be2:	00 00 00 
  8004200be5:	ff d0                	callq  *%rax
  8004200be7:	bf 20 00 00 00       	mov    $0x20,%edi
  8004200bec:	48 b8 5a 11 20 04 80 	movabs $0x800420115a,%rax
  8004200bf3:	00 00 00 
  8004200bf6:	ff d0                	callq  *%rax
  8004200bf8:	bf 20 00 00 00       	mov    $0x20,%edi
  8004200bfd:	48 b8 5a 11 20 04 80 	movabs $0x800420115a,%rax
  8004200c04:	00 00 00 
  8004200c07:	ff d0                	callq  *%rax
  8004200c09:	bf 20 00 00 00       	mov    $0x20,%edi
  8004200c0e:	48 b8 5a 11 20 04 80 	movabs $0x800420115a,%rax
  8004200c15:	00 00 00 
  8004200c18:	ff d0                	callq  *%rax
  8004200c1a:	bf 20 00 00 00       	mov    $0x20,%edi
  8004200c1f:	48 b8 5a 11 20 04 80 	movabs $0x800420115a,%rax
  8004200c26:	00 00 00 
  8004200c29:	ff d0                	callq  *%rax
  8004200c2b:	eb 3b                	jmp    8004200c68 <cga_putc+0x1b2>
  8004200c2d:	48 b8 08 e0 4d 04 80 	movabs $0x80044de008,%rax
  8004200c34:	00 00 00 
  8004200c37:	48 8b 30             	mov    (%rax),%rsi
  8004200c3a:	48 b8 10 e0 4d 04 80 	movabs $0x80044de010,%rax
  8004200c41:	00 00 00 
  8004200c44:	0f b7 00             	movzwl (%rax),%eax
  8004200c47:	8d 48 01             	lea    0x1(%rax),%ecx
  8004200c4a:	48 ba 10 e0 4d 04 80 	movabs $0x80044de010,%rdx
  8004200c51:	00 00 00 
  8004200c54:	66 89 0a             	mov    %cx,(%rdx)
  8004200c57:	0f b7 c0             	movzwl %ax,%eax
  8004200c5a:	48 01 c0             	add    %rax,%rax
  8004200c5d:	48 8d 14 06          	lea    (%rsi,%rax,1),%rdx
  8004200c61:	8b 45 cc             	mov    -0x34(%rbp),%eax
  8004200c64:	66 89 02             	mov    %ax,(%rdx)
  8004200c67:	90                   	nop
  8004200c68:	48 b8 10 e0 4d 04 80 	movabs $0x80044de010,%rax
  8004200c6f:	00 00 00 
  8004200c72:	0f b7 00             	movzwl (%rax),%eax
  8004200c75:	66 3d cf 07          	cmp    $0x7cf,%ax
  8004200c79:	0f 86 89 00 00 00    	jbe    8004200d08 <cga_putc+0x252>
  8004200c7f:	48 b8 08 e0 4d 04 80 	movabs $0x80044de008,%rax
  8004200c86:	00 00 00 
  8004200c89:	48 8b 00             	mov    (%rax),%rax
  8004200c8c:	48 8d 88 a0 00 00 00 	lea    0xa0(%rax),%rcx
  8004200c93:	48 b8 08 e0 4d 04 80 	movabs $0x80044de008,%rax
  8004200c9a:	00 00 00 
  8004200c9d:	48 8b 00             	mov    (%rax),%rax
  8004200ca0:	ba 00 0f 00 00       	mov    $0xf00,%edx
  8004200ca5:	48 89 ce             	mov    %rcx,%rsi
  8004200ca8:	48 89 c7             	mov    %rax,%rdi
  8004200cab:	48 b8 36 0c 21 04 80 	movabs $0x8004210c36,%rax
  8004200cb2:	00 00 00 
  8004200cb5:	ff d0                	callq  *%rax
  8004200cb7:	c7 45 fc 80 07 00 00 	movl   $0x780,-0x4(%rbp)
  8004200cbe:	eb 22                	jmp    8004200ce2 <cga_putc+0x22c>
  8004200cc0:	48 b8 08 e0 4d 04 80 	movabs $0x80044de008,%rax
  8004200cc7:	00 00 00 
  8004200cca:	48 8b 00             	mov    (%rax),%rax
  8004200ccd:	8b 55 fc             	mov    -0x4(%rbp),%edx
  8004200cd0:	48 63 d2             	movslq %edx,%rdx
  8004200cd3:	48 01 d2             	add    %rdx,%rdx
  8004200cd6:	48 01 d0             	add    %rdx,%rax
  8004200cd9:	66 c7 00 20 07       	movw   $0x720,(%rax)
  8004200cde:	83 45 fc 01          	addl   $0x1,-0x4(%rbp)
  8004200ce2:	81 7d fc cf 07 00 00 	cmpl   $0x7cf,-0x4(%rbp)
  8004200ce9:	7e d5                	jle    8004200cc0 <cga_putc+0x20a>
  8004200ceb:	48 b8 10 e0 4d 04 80 	movabs $0x80044de010,%rax
  8004200cf2:	00 00 00 
  8004200cf5:	0f b7 00             	movzwl (%rax),%eax
  8004200cf8:	8d 50 b0             	lea    -0x50(%rax),%edx
  8004200cfb:	48 b8 10 e0 4d 04 80 	movabs $0x80044de010,%rax
  8004200d02:	00 00 00 
  8004200d05:	66 89 10             	mov    %dx,(%rax)
  8004200d08:	48 b8 04 e0 4d 04 80 	movabs $0x80044de004,%rax
  8004200d0f:	00 00 00 
  8004200d12:	8b 00                	mov    (%rax),%eax
  8004200d14:	89 45 f8             	mov    %eax,-0x8(%rbp)
  8004200d17:	c6 45 f7 0e          	movb   $0xe,-0x9(%rbp)
}

static __inline void
outb(int port, uint8_t data)
{
	__asm __volatile("outb %0,%w1" : : "a" (data), "d" (port));
  8004200d1b:	0f b6 45 f7          	movzbl -0x9(%rbp),%eax
  8004200d1f:	8b 55 f8             	mov    -0x8(%rbp),%edx
  8004200d22:	ee                   	out    %al,(%dx)
  8004200d23:	48 b8 10 e0 4d 04 80 	movabs $0x80044de010,%rax
  8004200d2a:	00 00 00 
  8004200d2d:	0f b7 00             	movzwl (%rax),%eax
  8004200d30:	66 c1 e8 08          	shr    $0x8,%ax
  8004200d34:	0f b6 c0             	movzbl %al,%eax
  8004200d37:	48 ba 04 e0 4d 04 80 	movabs $0x80044de004,%rdx
  8004200d3e:	00 00 00 
  8004200d41:	8b 12                	mov    (%rdx),%edx
  8004200d43:	83 c2 01             	add    $0x1,%edx
  8004200d46:	89 55 f0             	mov    %edx,-0x10(%rbp)
  8004200d49:	88 45 ef             	mov    %al,-0x11(%rbp)
  8004200d4c:	0f b6 45 ef          	movzbl -0x11(%rbp),%eax
  8004200d50:	8b 55 f0             	mov    -0x10(%rbp),%edx
  8004200d53:	ee                   	out    %al,(%dx)
  8004200d54:	48 b8 04 e0 4d 04 80 	movabs $0x80044de004,%rax
  8004200d5b:	00 00 00 
  8004200d5e:	8b 00                	mov    (%rax),%eax
  8004200d60:	89 45 e8             	mov    %eax,-0x18(%rbp)
  8004200d63:	c6 45 e7 0f          	movb   $0xf,-0x19(%rbp)
  8004200d67:	0f b6 45 e7          	movzbl -0x19(%rbp),%eax
  8004200d6b:	8b 55 e8             	mov    -0x18(%rbp),%edx
  8004200d6e:	ee                   	out    %al,(%dx)
  8004200d6f:	48 b8 10 e0 4d 04 80 	movabs $0x80044de010,%rax
  8004200d76:	00 00 00 
  8004200d79:	0f b7 00             	movzwl (%rax),%eax
  8004200d7c:	0f b6 c0             	movzbl %al,%eax
  8004200d7f:	48 ba 04 e0 4d 04 80 	movabs $0x80044de004,%rdx
  8004200d86:	00 00 00 
  8004200d89:	8b 12                	mov    (%rdx),%edx
  8004200d8b:	83 c2 01             	add    $0x1,%edx
  8004200d8e:	89 55 e0             	mov    %edx,-0x20(%rbp)
  8004200d91:	88 45 df             	mov    %al,-0x21(%rbp)
  8004200d94:	0f b6 45 df          	movzbl -0x21(%rbp),%eax
  8004200d98:	8b 55 e0             	mov    -0x20(%rbp),%edx
  8004200d9b:	ee                   	out    %al,(%dx)
  8004200d9c:	c9                   	leaveq 
  8004200d9d:	c3                   	retq   

0000008004200d9e <kbd_proc_data>:
  8004200d9e:	55                   	push   %rbp
  8004200d9f:	48 89 e5             	mov    %rsp,%rbp
  8004200da2:	48 83 ec 20          	sub    $0x20,%rsp
  8004200da6:	c7 45 f4 64 00 00 00 	movl   $0x64,-0xc(%rbp)

static __inline uint8_t
inb(int port)
{
	uint8_t data;
	__asm __volatile("inb %w1,%0" : "=a" (data) : "d" (port));
  8004200dad:	8b 45 f4             	mov    -0xc(%rbp),%eax
  8004200db0:	89 c2                	mov    %eax,%edx
  8004200db2:	ec                   	in     (%dx),%al
  8004200db3:	88 45 f3             	mov    %al,-0xd(%rbp)
	return data;
  8004200db6:	0f b6 45 f3          	movzbl -0xd(%rbp),%eax
  8004200dba:	0f b6 c0             	movzbl %al,%eax
  8004200dbd:	83 e0 01             	and    $0x1,%eax
  8004200dc0:	85 c0                	test   %eax,%eax
  8004200dc2:	75 0a                	jne    8004200dce <kbd_proc_data+0x30>
  8004200dc4:	b8 ff ff ff ff       	mov    $0xffffffff,%eax
  8004200dc9:	e9 fc 01 00 00       	jmpq   8004200fca <kbd_proc_data+0x22c>
  8004200dce:	c7 45 ec 60 00 00 00 	movl   $0x60,-0x14(%rbp)

static __inline uint8_t
inb(int port)
{
	uint8_t data;
	__asm __volatile("inb %w1,%0" : "=a" (data) : "d" (port));
  8004200dd5:	8b 45 ec             	mov    -0x14(%rbp),%eax
  8004200dd8:	89 c2                	mov    %eax,%edx
  8004200dda:	ec                   	in     (%dx),%al
  8004200ddb:	88 45 eb             	mov    %al,-0x15(%rbp)
	return data;
  8004200dde:	0f b6 45 eb          	movzbl -0x15(%rbp),%eax
  8004200de2:	88 45 fb             	mov    %al,-0x5(%rbp)
  8004200de5:	80 7d fb e0          	cmpb   $0xe0,-0x5(%rbp)
  8004200de9:	75 27                	jne    8004200e12 <kbd_proc_data+0x74>
  8004200deb:	48 b8 28 e2 4d 04 80 	movabs $0x80044de228,%rax
  8004200df2:	00 00 00 
  8004200df5:	8b 00                	mov    (%rax),%eax
  8004200df7:	83 c8 40             	or     $0x40,%eax
  8004200dfa:	89 c2                	mov    %eax,%edx
  8004200dfc:	48 b8 28 e2 4d 04 80 	movabs $0x80044de228,%rax
  8004200e03:	00 00 00 
  8004200e06:	89 10                	mov    %edx,(%rax)
  8004200e08:	b8 00 00 00 00       	mov    $0x0,%eax
  8004200e0d:	e9 b8 01 00 00       	jmpq   8004200fca <kbd_proc_data+0x22c>
  8004200e12:	0f b6 45 fb          	movzbl -0x5(%rbp),%eax
  8004200e16:	84 c0                	test   %al,%al
  8004200e18:	79 65                	jns    8004200e7f <kbd_proc_data+0xe1>
  8004200e1a:	48 b8 28 e2 4d 04 80 	movabs $0x80044de228,%rax
  8004200e21:	00 00 00 
  8004200e24:	8b 00                	mov    (%rax),%eax
  8004200e26:	83 e0 40             	and    $0x40,%eax
  8004200e29:	85 c0                	test   %eax,%eax
  8004200e2b:	75 09                	jne    8004200e36 <kbd_proc_data+0x98>
  8004200e2d:	0f b6 45 fb          	movzbl -0x5(%rbp),%eax
  8004200e31:	83 e0 7f             	and    $0x7f,%eax
  8004200e34:	eb 04                	jmp    8004200e3a <kbd_proc_data+0x9c>
  8004200e36:	0f b6 45 fb          	movzbl -0x5(%rbp),%eax
  8004200e3a:	88 45 fb             	mov    %al,-0x5(%rbp)
  8004200e3d:	0f b6 45 fb          	movzbl -0x5(%rbp),%eax
  8004200e41:	48 ba 60 50 23 04 80 	movabs $0x8004235060,%rdx
  8004200e48:	00 00 00 
  8004200e4b:	48 98                	cltq   
  8004200e4d:	0f b6 04 02          	movzbl (%rdx,%rax,1),%eax
  8004200e51:	83 c8 40             	or     $0x40,%eax
  8004200e54:	0f b6 c0             	movzbl %al,%eax
  8004200e57:	f7 d0                	not    %eax
  8004200e59:	89 c2                	mov    %eax,%edx
  8004200e5b:	48 b8 28 e2 4d 04 80 	movabs $0x80044de228,%rax
  8004200e62:	00 00 00 
  8004200e65:	8b 00                	mov    (%rax),%eax
  8004200e67:	21 c2                	and    %eax,%edx
  8004200e69:	48 b8 28 e2 4d 04 80 	movabs $0x80044de228,%rax
  8004200e70:	00 00 00 
  8004200e73:	89 10                	mov    %edx,(%rax)
  8004200e75:	b8 00 00 00 00       	mov    $0x0,%eax
  8004200e7a:	e9 4b 01 00 00       	jmpq   8004200fca <kbd_proc_data+0x22c>
  8004200e7f:	48 b8 28 e2 4d 04 80 	movabs $0x80044de228,%rax
  8004200e86:	00 00 00 
  8004200e89:	8b 00                	mov    (%rax),%eax
  8004200e8b:	83 e0 40             	and    $0x40,%eax
  8004200e8e:	85 c0                	test   %eax,%eax
  8004200e90:	74 21                	je     8004200eb3 <kbd_proc_data+0x115>
  8004200e92:	80 4d fb 80          	orb    $0x80,-0x5(%rbp)
  8004200e96:	48 b8 28 e2 4d 04 80 	movabs $0x80044de228,%rax
  8004200e9d:	00 00 00 
  8004200ea0:	8b 00                	mov    (%rax),%eax
  8004200ea2:	83 e0 bf             	and    $0xffffffbf,%eax
  8004200ea5:	89 c2                	mov    %eax,%edx
  8004200ea7:	48 b8 28 e2 4d 04 80 	movabs $0x80044de228,%rax
  8004200eae:	00 00 00 
  8004200eb1:	89 10                	mov    %edx,(%rax)
  8004200eb3:	0f b6 45 fb          	movzbl -0x5(%rbp),%eax
  8004200eb7:	48 ba 60 50 23 04 80 	movabs $0x8004235060,%rdx
  8004200ebe:	00 00 00 
  8004200ec1:	48 98                	cltq   
  8004200ec3:	0f b6 04 02          	movzbl (%rdx,%rax,1),%eax
  8004200ec7:	0f b6 d0             	movzbl %al,%edx
  8004200eca:	48 b8 28 e2 4d 04 80 	movabs $0x80044de228,%rax
  8004200ed1:	00 00 00 
  8004200ed4:	8b 00                	mov    (%rax),%eax
  8004200ed6:	09 c2                	or     %eax,%edx
  8004200ed8:	48 b8 28 e2 4d 04 80 	movabs $0x80044de228,%rax
  8004200edf:	00 00 00 
  8004200ee2:	89 10                	mov    %edx,(%rax)
  8004200ee4:	0f b6 45 fb          	movzbl -0x5(%rbp),%eax
  8004200ee8:	48 ba 60 51 23 04 80 	movabs $0x8004235160,%rdx
  8004200eef:	00 00 00 
  8004200ef2:	48 98                	cltq   
  8004200ef4:	0f b6 04 02          	movzbl (%rdx,%rax,1),%eax
  8004200ef8:	0f b6 d0             	movzbl %al,%edx
  8004200efb:	48 b8 28 e2 4d 04 80 	movabs $0x80044de228,%rax
  8004200f02:	00 00 00 
  8004200f05:	8b 00                	mov    (%rax),%eax
  8004200f07:	31 c2                	xor    %eax,%edx
  8004200f09:	48 b8 28 e2 4d 04 80 	movabs $0x80044de228,%rax
  8004200f10:	00 00 00 
  8004200f13:	89 10                	mov    %edx,(%rax)
  8004200f15:	48 b8 28 e2 4d 04 80 	movabs $0x80044de228,%rax
  8004200f1c:	00 00 00 
  8004200f1f:	8b 00                	mov    (%rax),%eax
  8004200f21:	83 e0 03             	and    $0x3,%eax
  8004200f24:	89 c2                	mov    %eax,%edx
  8004200f26:	48 b8 60 55 23 04 80 	movabs $0x8004235560,%rax
  8004200f2d:	00 00 00 
  8004200f30:	89 d2                	mov    %edx,%edx
  8004200f32:	48 8b 14 d0          	mov    (%rax,%rdx,8),%rdx
  8004200f36:	0f b6 45 fb          	movzbl -0x5(%rbp),%eax
  8004200f3a:	48 01 d0             	add    %rdx,%rax
  8004200f3d:	0f b6 00             	movzbl (%rax),%eax
  8004200f40:	0f b6 c0             	movzbl %al,%eax
  8004200f43:	89 45 fc             	mov    %eax,-0x4(%rbp)
  8004200f46:	48 b8 28 e2 4d 04 80 	movabs $0x80044de228,%rax
  8004200f4d:	00 00 00 
  8004200f50:	8b 00                	mov    (%rax),%eax
  8004200f52:	83 e0 08             	and    $0x8,%eax
  8004200f55:	85 c0                	test   %eax,%eax
  8004200f57:	74 22                	je     8004200f7b <kbd_proc_data+0x1dd>
  8004200f59:	83 7d fc 60          	cmpl   $0x60,-0x4(%rbp)
  8004200f5d:	7e 0c                	jle    8004200f6b <kbd_proc_data+0x1cd>
  8004200f5f:	83 7d fc 7a          	cmpl   $0x7a,-0x4(%rbp)
  8004200f63:	7f 06                	jg     8004200f6b <kbd_proc_data+0x1cd>
  8004200f65:	83 6d fc 20          	subl   $0x20,-0x4(%rbp)
  8004200f69:	eb 10                	jmp    8004200f7b <kbd_proc_data+0x1dd>
  8004200f6b:	83 7d fc 40          	cmpl   $0x40,-0x4(%rbp)
  8004200f6f:	7e 0a                	jle    8004200f7b <kbd_proc_data+0x1dd>
  8004200f71:	83 7d fc 5a          	cmpl   $0x5a,-0x4(%rbp)
  8004200f75:	7f 04                	jg     8004200f7b <kbd_proc_data+0x1dd>
  8004200f77:	83 45 fc 20          	addl   $0x20,-0x4(%rbp)
  8004200f7b:	48 b8 28 e2 4d 04 80 	movabs $0x80044de228,%rax
  8004200f82:	00 00 00 
  8004200f85:	8b 00                	mov    (%rax),%eax
  8004200f87:	f7 d0                	not    %eax
  8004200f89:	83 e0 06             	and    $0x6,%eax
  8004200f8c:	85 c0                	test   %eax,%eax
  8004200f8e:	75 37                	jne    8004200fc7 <kbd_proc_data+0x229>
  8004200f90:	81 7d fc e9 00 00 00 	cmpl   $0xe9,-0x4(%rbp)
  8004200f97:	75 2e                	jne    8004200fc7 <kbd_proc_data+0x229>
  8004200f99:	48 bf 36 de 21 04 80 	movabs $0x800421de36,%rdi
  8004200fa0:	00 00 00 
  8004200fa3:	b8 00 00 00 00       	mov    $0x0,%eax
  8004200fa8:	48 ba 77 9c 20 04 80 	movabs $0x8004209c77,%rdx
  8004200faf:	00 00 00 
  8004200fb2:	ff d2                	callq  *%rdx
  8004200fb4:	c7 45 e4 92 00 00 00 	movl   $0x92,-0x1c(%rbp)
  8004200fbb:	c6 45 e3 03          	movb   $0x3,-0x1d(%rbp)
}

static __inline void
outb(int port, uint8_t data)
{
	__asm __volatile("outb %0,%w1" : : "a" (data), "d" (port));
  8004200fbf:	0f b6 45 e3          	movzbl -0x1d(%rbp),%eax
  8004200fc3:	8b 55 e4             	mov    -0x1c(%rbp),%edx
  8004200fc6:	ee                   	out    %al,(%dx)
  8004200fc7:	8b 45 fc             	mov    -0x4(%rbp),%eax
  8004200fca:	c9                   	leaveq 
  8004200fcb:	c3                   	retq   

0000008004200fcc <kbd_intr>:
  8004200fcc:	55                   	push   %rbp
  8004200fcd:	48 89 e5             	mov    %rsp,%rbp
  8004200fd0:	48 bf 9e 0d 20 04 80 	movabs $0x8004200d9e,%rdi
  8004200fd7:	00 00 00 
  8004200fda:	48 b8 1d 10 20 04 80 	movabs $0x800420101d,%rax
  8004200fe1:	00 00 00 
  8004200fe4:	ff d0                	callq  *%rax
  8004200fe6:	5d                   	pop    %rbp
  8004200fe7:	c3                   	retq   

0000008004200fe8 <kbd_init>:
  8004200fe8:	55                   	push   %rbp
  8004200fe9:	48 89 e5             	mov    %rsp,%rbp
  8004200fec:	48 b8 cc 0f 20 04 80 	movabs $0x8004200fcc,%rax
  8004200ff3:	00 00 00 
  8004200ff6:	ff d0                	callq  *%rax
  8004200ff8:	48 b8 72 56 23 04 80 	movabs $0x8004235672,%rax
  8004200fff:	00 00 00 
  8004201002:	0f b7 00             	movzwl (%rax),%eax
  8004201005:	0f b7 c0             	movzwl %ax,%eax
  8004201008:	25 fd ff 00 00       	and    $0xfffd,%eax
  800420100d:	89 c7                	mov    %eax,%edi
  800420100f:	48 b8 c9 9a 20 04 80 	movabs $0x8004209ac9,%rax
  8004201016:	00 00 00 
  8004201019:	ff d0                	callq  *%rax
  800420101b:	5d                   	pop    %rbp
  800420101c:	c3                   	retq   

000000800420101d <cons_intr>:
  800420101d:	55                   	push   %rbp
  800420101e:	48 89 e5             	mov    %rsp,%rbp
  8004201021:	48 83 ec 20          	sub    $0x20,%rsp
  8004201025:	48 89 7d e8          	mov    %rdi,-0x18(%rbp)
  8004201029:	eb 6a                	jmp    8004201095 <cons_intr+0x78>
  800420102b:	83 7d fc 00          	cmpl   $0x0,-0x4(%rbp)
  800420102f:	75 02                	jne    8004201033 <cons_intr+0x16>
  8004201031:	eb 62                	jmp    8004201095 <cons_intr+0x78>
  8004201033:	48 b8 20 e0 4d 04 80 	movabs $0x80044de020,%rax
  800420103a:	00 00 00 
  800420103d:	8b 80 04 02 00 00    	mov    0x204(%rax),%eax
  8004201043:	8d 48 01             	lea    0x1(%rax),%ecx
  8004201046:	48 ba 20 e0 4d 04 80 	movabs $0x80044de020,%rdx
  800420104d:	00 00 00 
  8004201050:	89 8a 04 02 00 00    	mov    %ecx,0x204(%rdx)
  8004201056:	8b 55 fc             	mov    -0x4(%rbp),%edx
  8004201059:	89 d1                	mov    %edx,%ecx
  800420105b:	48 ba 20 e0 4d 04 80 	movabs $0x80044de020,%rdx
  8004201062:	00 00 00 
  8004201065:	89 c0                	mov    %eax,%eax
  8004201067:	88 0c 02             	mov    %cl,(%rdx,%rax,1)
  800420106a:	48 b8 20 e0 4d 04 80 	movabs $0x80044de020,%rax
  8004201071:	00 00 00 
  8004201074:	8b 80 04 02 00 00    	mov    0x204(%rax),%eax
  800420107a:	3d 00 02 00 00       	cmp    $0x200,%eax
  800420107f:	75 14                	jne    8004201095 <cons_intr+0x78>
  8004201081:	48 b8 20 e0 4d 04 80 	movabs $0x80044de020,%rax
  8004201088:	00 00 00 
  800420108b:	c7 80 04 02 00 00 00 	movl   $0x0,0x204(%rax)
  8004201092:	00 00 00 
  8004201095:	48 8b 45 e8          	mov    -0x18(%rbp),%rax
  8004201099:	ff d0                	callq  *%rax
  800420109b:	89 45 fc             	mov    %eax,-0x4(%rbp)
  800420109e:	83 7d fc ff          	cmpl   $0xffffffff,-0x4(%rbp)
  80042010a2:	75 87                	jne    800420102b <cons_intr+0xe>
  80042010a4:	c9                   	leaveq 
  80042010a5:	c3                   	retq   

00000080042010a6 <cons_getc>:
  80042010a6:	55                   	push   %rbp
  80042010a7:	48 89 e5             	mov    %rsp,%rbp
  80042010aa:	48 83 ec 10          	sub    $0x10,%rsp
  80042010ae:	48 b8 7d 07 20 04 80 	movabs $0x800420077d,%rax
  80042010b5:	00 00 00 
  80042010b8:	ff d0                	callq  *%rax
  80042010ba:	48 b8 cc 0f 20 04 80 	movabs $0x8004200fcc,%rax
  80042010c1:	00 00 00 
  80042010c4:	ff d0                	callq  *%rax
  80042010c6:	48 b8 20 e0 4d 04 80 	movabs $0x80044de020,%rax
  80042010cd:	00 00 00 
  80042010d0:	8b 90 00 02 00 00    	mov    0x200(%rax),%edx
  80042010d6:	48 b8 20 e0 4d 04 80 	movabs $0x80044de020,%rax
  80042010dd:	00 00 00 
  80042010e0:	8b 80 04 02 00 00    	mov    0x204(%rax),%eax
  80042010e6:	39 c2                	cmp    %eax,%edx
  80042010e8:	74 69                	je     8004201153 <cons_getc+0xad>
  80042010ea:	48 b8 20 e0 4d 04 80 	movabs $0x80044de020,%rax
  80042010f1:	00 00 00 
  80042010f4:	8b 80 00 02 00 00    	mov    0x200(%rax),%eax
  80042010fa:	8d 48 01             	lea    0x1(%rax),%ecx
  80042010fd:	48 ba 20 e0 4d 04 80 	movabs $0x80044de020,%rdx
  8004201104:	00 00 00 
  8004201107:	89 8a 00 02 00 00    	mov    %ecx,0x200(%rdx)
  800420110d:	48 ba 20 e0 4d 04 80 	movabs $0x80044de020,%rdx
  8004201114:	00 00 00 
  8004201117:	89 c0                	mov    %eax,%eax
  8004201119:	0f b6 04 02          	movzbl (%rdx,%rax,1),%eax
  800420111d:	0f b6 c0             	movzbl %al,%eax
  8004201120:	89 45 fc             	mov    %eax,-0x4(%rbp)
  8004201123:	48 b8 20 e0 4d 04 80 	movabs $0x80044de020,%rax
  800420112a:	00 00 00 
  800420112d:	8b 80 00 02 00 00    	mov    0x200(%rax),%eax
  8004201133:	3d 00 02 00 00       	cmp    $0x200,%eax
  8004201138:	75 14                	jne    800420114e <cons_getc+0xa8>
  800420113a:	48 b8 20 e0 4d 04 80 	movabs $0x80044de020,%rax
  8004201141:	00 00 00 
  8004201144:	c7 80 00 02 00 00 00 	movl   $0x0,0x200(%rax)
  800420114b:	00 00 00 
  800420114e:	8b 45 fc             	mov    -0x4(%rbp),%eax
  8004201151:	eb 05                	jmp    8004201158 <cons_getc+0xb2>
  8004201153:	b8 00 00 00 00       	mov    $0x0,%eax
  8004201158:	c9                   	leaveq 
  8004201159:	c3                   	retq   

000000800420115a <cons_putc>:
  800420115a:	55                   	push   %rbp
  800420115b:	48 89 e5             	mov    %rsp,%rbp
  800420115e:	48 83 ec 10          	sub    $0x10,%rsp
  8004201162:	89 7d fc             	mov    %edi,-0x4(%rbp)
  8004201165:	8b 45 fc             	mov    -0x4(%rbp),%eax
  8004201168:	89 c7                	mov    %eax,%edi
  800420116a:	48 b8 aa 07 20 04 80 	movabs $0x80042007aa,%rax
  8004201171:	00 00 00 
  8004201174:	ff d0                	callq  *%rax
  8004201176:	8b 45 fc             	mov    -0x4(%rbp),%eax
  8004201179:	89 c7                	mov    %eax,%edi
  800420117b:	48 b8 17 09 20 04 80 	movabs $0x8004200917,%rax
  8004201182:	00 00 00 
  8004201185:	ff d0                	callq  *%rax
  8004201187:	8b 45 fc             	mov    -0x4(%rbp),%eax
  800420118a:	89 c7                	mov    %eax,%edi
  800420118c:	48 b8 b6 0a 20 04 80 	movabs $0x8004200ab6,%rax
  8004201193:	00 00 00 
  8004201196:	ff d0                	callq  *%rax
  8004201198:	c9                   	leaveq 
  8004201199:	c3                   	retq   

000000800420119a <cons_init>:
  800420119a:	55                   	push   %rbp
  800420119b:	48 89 e5             	mov    %rsp,%rbp
  800420119e:	48 b8 9c 09 20 04 80 	movabs $0x800420099c,%rax
  80042011a5:	00 00 00 
  80042011a8:	ff d0                	callq  *%rax
  80042011aa:	48 b8 e8 0f 20 04 80 	movabs $0x8004200fe8,%rax
  80042011b1:	00 00 00 
  80042011b4:	ff d0                	callq  *%rax
  80042011b6:	48 b8 0f 08 20 04 80 	movabs $0x800420080f,%rax
  80042011bd:	00 00 00 
  80042011c0:	ff d0                	callq  *%rax
  80042011c2:	48 b8 00 e0 4d 04 80 	movabs $0x80044de000,%rax
  80042011c9:	00 00 00 
  80042011cc:	0f b6 00             	movzbl (%rax),%eax
  80042011cf:	83 f0 01             	xor    $0x1,%eax
  80042011d2:	84 c0                	test   %al,%al
  80042011d4:	74 1b                	je     80042011f1 <cons_init+0x57>
  80042011d6:	48 bf 42 de 21 04 80 	movabs $0x800421de42,%rdi
  80042011dd:	00 00 00 
  80042011e0:	b8 00 00 00 00       	mov    $0x0,%eax
  80042011e5:	48 ba 77 9c 20 04 80 	movabs $0x8004209c77,%rdx
  80042011ec:	00 00 00 
  80042011ef:	ff d2                	callq  *%rdx
  80042011f1:	5d                   	pop    %rbp
  80042011f2:	c3                   	retq   

00000080042011f3 <cputchar>:
  80042011f3:	55                   	push   %rbp
  80042011f4:	48 89 e5             	mov    %rsp,%rbp
  80042011f7:	48 83 ec 10          	sub    $0x10,%rsp
  80042011fb:	89 7d fc             	mov    %edi,-0x4(%rbp)
  80042011fe:	8b 45 fc             	mov    -0x4(%rbp),%eax
  8004201201:	89 c7                	mov    %eax,%edi
  8004201203:	48 b8 5a 11 20 04 80 	movabs $0x800420115a,%rax
  800420120a:	00 00 00 
  800420120d:	ff d0                	callq  *%rax
  800420120f:	c9                   	leaveq 
  8004201210:	c3                   	retq   

0000008004201211 <getchar>:
  8004201211:	55                   	push   %rbp
  8004201212:	48 89 e5             	mov    %rsp,%rbp
  8004201215:	48 83 ec 10          	sub    $0x10,%rsp
  8004201219:	48 b8 a6 10 20 04 80 	movabs $0x80042010a6,%rax
  8004201220:	00 00 00 
  8004201223:	ff d0                	callq  *%rax
  8004201225:	89 45 fc             	mov    %eax,-0x4(%rbp)
  8004201228:	83 7d fc 00          	cmpl   $0x0,-0x4(%rbp)
  800420122c:	74 eb                	je     8004201219 <getchar+0x8>
  800420122e:	8b 45 fc             	mov    -0x4(%rbp),%eax
  8004201231:	c9                   	leaveq 
  8004201232:	c3                   	retq   

0000008004201233 <iscons>:
  8004201233:	55                   	push   %rbp
  8004201234:	48 89 e5             	mov    %rsp,%rbp
  8004201237:	48 83 ec 04          	sub    $0x4,%rsp
  800420123b:	89 7d fc             	mov    %edi,-0x4(%rbp)
  800420123e:	b8 01 00 00 00       	mov    $0x1,%eax
  8004201243:	c9                   	leaveq 
  8004201244:	c3                   	retq   

0000008004201245 <mon_help>:
  8004201245:	55                   	push   %rbp
  8004201246:	48 89 e5             	mov    %rsp,%rbp
  8004201249:	48 83 ec 30          	sub    $0x30,%rsp
  800420124d:	89 7d ec             	mov    %edi,-0x14(%rbp)
  8004201250:	48 89 75 e0          	mov    %rsi,-0x20(%rbp)
  8004201254:	48 89 55 d8          	mov    %rdx,-0x28(%rbp)
  8004201258:	c7 45 fc 00 00 00 00 	movl   $0x0,-0x4(%rbp)
  800420125f:	eb 6c                	jmp    80042012cd <mon_help+0x88>
  8004201261:	48 b9 80 55 23 04 80 	movabs $0x8004235580,%rcx
  8004201268:	00 00 00 
  800420126b:	8b 45 fc             	mov    -0x4(%rbp),%eax
  800420126e:	48 63 d0             	movslq %eax,%rdx
  8004201271:	48 89 d0             	mov    %rdx,%rax
  8004201274:	48 01 c0             	add    %rax,%rax
  8004201277:	48 01 d0             	add    %rdx,%rax
  800420127a:	48 c1 e0 03          	shl    $0x3,%rax
  800420127e:	48 01 c8             	add    %rcx,%rax
  8004201281:	48 8b 48 08          	mov    0x8(%rax),%rcx
  8004201285:	48 be 80 55 23 04 80 	movabs $0x8004235580,%rsi
  800420128c:	00 00 00 
  800420128f:	8b 45 fc             	mov    -0x4(%rbp),%eax
  8004201292:	48 63 d0             	movslq %eax,%rdx
  8004201295:	48 89 d0             	mov    %rdx,%rax
  8004201298:	48 01 c0             	add    %rax,%rax
  800420129b:	48 01 d0             	add    %rdx,%rax
  800420129e:	48 c1 e0 03          	shl    $0x3,%rax
  80042012a2:	48 01 f0             	add    %rsi,%rax
  80042012a5:	48 8b 00             	mov    (%rax),%rax
  80042012a8:	48 89 ca             	mov    %rcx,%rdx
  80042012ab:	48 89 c6             	mov    %rax,%rsi
  80042012ae:	48 bf f6 de 21 04 80 	movabs $0x800421def6,%rdi
  80042012b5:	00 00 00 
  80042012b8:	b8 00 00 00 00       	mov    $0x0,%eax
  80042012bd:	48 b9 77 9c 20 04 80 	movabs $0x8004209c77,%rcx
  80042012c4:	00 00 00 
  80042012c7:	ff d1                	callq  *%rcx
  80042012c9:	83 45 fc 01          	addl   $0x1,-0x4(%rbp)
  80042012cd:	8b 45 fc             	mov    -0x4(%rbp),%eax
  80042012d0:	83 f8 03             	cmp    $0x3,%eax
  80042012d3:	76 8c                	jbe    8004201261 <mon_help+0x1c>
  80042012d5:	b8 00 00 00 00       	mov    $0x0,%eax
  80042012da:	c9                   	leaveq 
  80042012db:	c3                   	retq   

00000080042012dc <mon_kerninfo>:
  80042012dc:	55                   	push   %rbp
  80042012dd:	48 89 e5             	mov    %rsp,%rbp
  80042012e0:	48 83 ec 30          	sub    $0x30,%rsp
  80042012e4:	89 7d ec             	mov    %edi,-0x14(%rbp)
  80042012e7:	48 89 75 e0          	mov    %rsi,-0x20(%rbp)
  80042012eb:	48 89 55 d8          	mov    %rdx,-0x28(%rbp)
  80042012ef:	48 bf ff de 21 04 80 	movabs $0x800421deff,%rdi
  80042012f6:	00 00 00 
  80042012f9:	b8 00 00 00 00       	mov    $0x0,%eax
  80042012fe:	48 ba 77 9c 20 04 80 	movabs $0x8004209c77,%rdx
  8004201305:	00 00 00 
  8004201308:	ff d2                	callq  *%rdx
  800420130a:	48 be 0c 00 20 00 00 	movabs $0x20000c,%rsi
  8004201311:	00 00 00 
  8004201314:	48 bf 18 df 21 04 80 	movabs $0x800421df18,%rdi
  800420131b:	00 00 00 
  800420131e:	b8 00 00 00 00       	mov    $0x0,%eax
  8004201323:	48 ba 77 9c 20 04 80 	movabs $0x8004209c77,%rdx
  800420132a:	00 00 00 
  800420132d:	ff d2                	callq  *%rdx
  800420132f:	48 ba 0c 00 20 00 00 	movabs $0x20000c,%rdx
  8004201336:	00 00 00 
  8004201339:	48 be 0c 00 20 04 80 	movabs $0x800420000c,%rsi
  8004201340:	00 00 00 
  8004201343:	48 bf 40 df 21 04 80 	movabs $0x800421df40,%rdi
  800420134a:	00 00 00 
  800420134d:	b8 00 00 00 00       	mov    $0x0,%eax
  8004201352:	48 b9 77 9c 20 04 80 	movabs $0x8004209c77,%rcx
  8004201359:	00 00 00 
  800420135c:	ff d1                	callq  *%rcx
  800420135e:	48 ba 60 dd 21 00 00 	movabs $0x21dd60,%rdx
  8004201365:	00 00 00 
  8004201368:	48 be 60 dd 21 04 80 	movabs $0x800421dd60,%rsi
  800420136f:	00 00 00 
  8004201372:	48 bf 68 df 21 04 80 	movabs $0x800421df68,%rdi
  8004201379:	00 00 00 
  800420137c:	b8 00 00 00 00       	mov    $0x0,%eax
  8004201381:	48 b9 77 9c 20 04 80 	movabs $0x8004209c77,%rcx
  8004201388:	00 00 00 
  800420138b:	ff d1                	callq  *%rcx
  800420138d:	48 ba 77 d2 4d 00 00 	movabs $0x4dd277,%rdx
  8004201394:	00 00 00 
  8004201397:	48 be 77 d2 4d 04 80 	movabs $0x80044dd277,%rsi
  800420139e:	00 00 00 
  80042013a1:	48 bf 90 df 21 04 80 	movabs $0x800421df90,%rdi
  80042013a8:	00 00 00 
  80042013ab:	b8 00 00 00 00       	mov    $0x0,%eax
  80042013b0:	48 b9 77 9c 20 04 80 	movabs $0x8004209c77,%rcx
  80042013b7:	00 00 00 
  80042013ba:	ff d1                	callq  *%rcx
  80042013bc:	48 ba 10 00 72 00 00 	movabs $0x720010,%rdx
  80042013c3:	00 00 00 
  80042013c6:	48 be 10 00 72 04 80 	movabs $0x8004720010,%rsi
  80042013cd:	00 00 00 
  80042013d0:	48 bf b8 df 21 04 80 	movabs $0x800421dfb8,%rdi
  80042013d7:	00 00 00 
  80042013da:	b8 00 00 00 00       	mov    $0x0,%eax
  80042013df:	48 b9 77 9c 20 04 80 	movabs $0x8004209c77,%rcx
  80042013e6:	00 00 00 
  80042013e9:	ff d1                	callq  *%rcx
  80042013eb:	48 c7 45 f8 00 04 00 	movq   $0x400,-0x8(%rbp)
  80042013f2:	00 
  80042013f3:	48 b8 0c 00 20 04 80 	movabs $0x800420000c,%rax
  80042013fa:	00 00 00 
  80042013fd:	48 8b 55 f8          	mov    -0x8(%rbp),%rdx
  8004201401:	48 29 c2             	sub    %rax,%rdx
  8004201404:	48 b8 10 00 72 04 80 	movabs $0x8004720010,%rax
  800420140b:	00 00 00 
  800420140e:	48 83 e8 01          	sub    $0x1,%rax
  8004201412:	48 01 d0             	add    %rdx,%rax
  8004201415:	48 89 45 f0          	mov    %rax,-0x10(%rbp)
  8004201419:	48 8b 45 f0          	mov    -0x10(%rbp),%rax
  800420141d:	ba 00 00 00 00       	mov    $0x0,%edx
  8004201422:	48 f7 75 f8          	divq   -0x8(%rbp)
  8004201426:	48 89 d0             	mov    %rdx,%rax
  8004201429:	48 8b 55 f0          	mov    -0x10(%rbp),%rdx
  800420142d:	48 29 c2             	sub    %rax,%rdx
  8004201430:	48 89 d0             	mov    %rdx,%rax
  8004201433:	48 8d 90 ff 03 00 00 	lea    0x3ff(%rax),%rdx
  800420143a:	48 85 c0             	test   %rax,%rax
  800420143d:	48 0f 48 c2          	cmovs  %rdx,%rax
  8004201441:	48 c1 f8 0a          	sar    $0xa,%rax
  8004201445:	48 89 c6             	mov    %rax,%rsi
  8004201448:	48 bf e0 df 21 04 80 	movabs $0x800421dfe0,%rdi
  800420144f:	00 00 00 
  8004201452:	b8 00 00 00 00       	mov    $0x0,%eax
  8004201457:	48 ba 77 9c 20 04 80 	movabs $0x8004209c77,%rdx
  800420145e:	00 00 00 
  8004201461:	ff d2                	callq  *%rdx
  8004201463:	b8 00 00 00 00       	mov    $0x0,%eax
  8004201468:	c9                   	leaveq 
  8004201469:	c3                   	retq   

000000800420146a <mon_backtrace>:
  800420146a:	55                   	push   %rbp
  800420146b:	48 89 e5             	mov    %rsp,%rbp
  800420146e:	48 81 ec 50 05 00 00 	sub    $0x550,%rsp
  8004201475:	89 bd cc fa ff ff    	mov    %edi,-0x534(%rbp)
  800420147b:	48 89 b5 c0 fa ff ff 	mov    %rsi,-0x540(%rbp)
  8004201482:	48 89 95 b8 fa ff ff 	mov    %rdx,-0x548(%rbp)

static __inline uint64_t
read_rbp(void)
{
	uint64_t rbp;
	__asm __volatile("movq %%rbp,%0" : "=r" (rbp)::"cc","memory");
  8004201489:	48 89 e8             	mov    %rbp,%rax
  800420148c:	48 89 45 b8          	mov    %rax,-0x48(%rbp)
	return rbp;
  8004201490:	48 8b 45 b8          	mov    -0x48(%rbp),%rax
  8004201494:	48 89 45 f0          	mov    %rax,-0x10(%rbp)

static __inline uint64_t
read_rsp(void)
{
	uint64_t esp;
	__asm __volatile("movq %%rsp,%0" : "=r" (esp));
  8004201498:	48 89 e0             	mov    %rsp,%rax
  800420149b:	48 89 45 b0          	mov    %rax,-0x50(%rbp)
	return esp;
  800420149f:	48 8b 45 b0          	mov    -0x50(%rbp),%rax
  80042014a3:	48 89 45 e0          	mov    %rax,-0x20(%rbp)
  80042014a7:	48 83 bd b8 fa ff ff 	cmpq   $0x0,-0x548(%rbp)
  80042014ae:	00 
  80042014af:	74 21                	je     80042014d2 <mon_backtrace+0x68>
  80042014b1:	48 8b 85 b8 fa ff ff 	mov    -0x548(%rbp),%rax
  80042014b8:	48 8b 40 50          	mov    0x50(%rax),%rax
  80042014bc:	48 89 45 f0          	mov    %rax,-0x10(%rbp)
  80042014c0:	48 8b 85 b8 fa ff ff 	mov    -0x548(%rbp),%rax
  80042014c7:	48 8b 80 b0 00 00 00 	mov    0xb0(%rax),%rax
  80042014ce:	48 89 45 e0          	mov    %rax,-0x20(%rbp)
  80042014d2:	48 8d 05 00 00 00 00 	lea    0x0(%rip),%rax        # 80042014d9 <mon_backtrace+0x6f>
  80042014d9:	48 89 45 e8          	mov    %rax,-0x18(%rbp)
  80042014dd:	48 bf 0a e0 21 04 80 	movabs $0x800421e00a,%rdi
  80042014e4:	00 00 00 
  80042014e7:	b8 00 00 00 00       	mov    $0x0,%eax
  80042014ec:	48 ba 77 9c 20 04 80 	movabs $0x8004209c77,%rdx
  80042014f3:	00 00 00 
  80042014f6:	ff d2                	callq  *%rdx
  80042014f8:	e9 17 03 00 00       	jmpq   8004201814 <mon_backtrace+0x3aa>
  80042014fd:	48 8b 55 e8          	mov    -0x18(%rbp),%rdx
  8004201501:	48 8b 45 f0          	mov    -0x10(%rbp),%rax
  8004201505:	48 89 c6             	mov    %rax,%rsi
  8004201508:	48 bf 1c e0 21 04 80 	movabs $0x800421e01c,%rdi
  800420150f:	00 00 00 
  8004201512:	b8 00 00 00 00       	mov    $0x0,%eax
  8004201517:	48 b9 77 9c 20 04 80 	movabs $0x8004209c77,%rcx
  800420151e:	00 00 00 
  8004201521:	ff d1                	callq  *%rcx
  8004201523:	48 8d 95 d0 fa ff ff 	lea    -0x530(%rbp),%rdx
  800420152a:	48 8b 45 e8          	mov    -0x18(%rbp),%rax
  800420152e:	48 89 d6             	mov    %rdx,%rsi
  8004201531:	48 89 c7             	mov    %rax,%rdi
  8004201534:	48 b8 17 f8 20 04 80 	movabs $0x800420f817,%rax
  800420153b:	00 00 00 
  800420153e:	ff d0                	callq  *%rax
  8004201540:	85 c0                	test   %eax,%eax
  8004201542:	0f 88 9a 02 00 00    	js     80042017e2 <mon_backtrace+0x378>
  8004201548:	48 8d 85 d0 fa ff ff 	lea    -0x530(%rbp),%rax
  800420154f:	48 05 a8 00 00 00    	add    $0xa8,%rax
  8004201555:	48 89 45 c8          	mov    %rax,-0x38(%rbp)
  8004201559:	48 8b 85 f0 fa ff ff 	mov    -0x510(%rbp),%rax
  8004201560:	48 8b 55 e8          	mov    -0x18(%rbp),%rdx
  8004201564:	48 89 d7             	mov    %rdx,%rdi
  8004201567:	48 29 c7             	sub    %rax,%rdi
  800420156a:	48 8b b5 e0 fa ff ff 	mov    -0x520(%rbp),%rsi
  8004201571:	8b 8d e8 fa ff ff    	mov    -0x518(%rbp),%ecx
  8004201577:	8b 95 d8 fa ff ff    	mov    -0x528(%rbp),%edx
  800420157d:	48 8b 85 d0 fa ff ff 	mov    -0x530(%rbp),%rax
  8004201584:	49 89 f9             	mov    %rdi,%r9
  8004201587:	49 89 f0             	mov    %rsi,%r8
  800420158a:	48 89 c6             	mov    %rax,%rsi
  800420158d:	48 bf 38 e0 21 04 80 	movabs $0x800421e038,%rdi
  8004201594:	00 00 00 
  8004201597:	b8 00 00 00 00       	mov    $0x0,%eax
  800420159c:	49 ba 77 9c 20 04 80 	movabs $0x8004209c77,%r10
  80042015a3:	00 00 00 
  80042015a6:	41 ff d2             	callq  *%r10
  80042015a9:	48 8b 45 c8          	mov    -0x38(%rbp),%rax
  80042015ad:	0f b7 40 02          	movzwl 0x2(%rax),%eax
  80042015b1:	66 83 f8 06          	cmp    $0x6,%ax
  80042015b5:	75 15                	jne    80042015cc <mon_backtrace+0x162>
  80042015b7:	48 8b 45 c8          	mov    -0x38(%rbp),%rax
  80042015bb:	48 8b 50 08          	mov    0x8(%rax),%rdx
  80042015bf:	48 8b 45 f0          	mov    -0x10(%rbp),%rax
  80042015c3:	48 01 d0             	add    %rdx,%rax
  80042015c6:	48 89 45 d8          	mov    %rax,-0x28(%rbp)
  80042015ca:	eb 28                	jmp    80042015f4 <mon_backtrace+0x18a>
  80042015cc:	48 8b 45 c8          	mov    -0x38(%rbp),%rax
  80042015d0:	0f b7 40 02          	movzwl 0x2(%rax),%eax
  80042015d4:	66 83 f8 07          	cmp    $0x7,%ax
  80042015d8:	75 15                	jne    80042015ef <mon_backtrace+0x185>
  80042015da:	48 8b 45 c8          	mov    -0x38(%rbp),%rax
  80042015de:	48 8b 50 08          	mov    0x8(%rax),%rdx
  80042015e2:	48 8b 45 e0          	mov    -0x20(%rbp),%rax
  80042015e6:	48 01 d0             	add    %rdx,%rax
  80042015e9:	48 89 45 d8          	mov    %rax,-0x28(%rbp)
  80042015ed:	eb 05                	jmp    80042015f4 <mon_backtrace+0x18a>
  80042015ef:	e9 ee 01 00 00       	jmpq   80042017e2 <mon_backtrace+0x378>
  80042015f4:	8b 85 f8 fa ff ff    	mov    -0x508(%rbp),%eax
  80042015fa:	89 c6                	mov    %eax,%esi
  80042015fc:	48 bf 53 e0 21 04 80 	movabs $0x800421e053,%rdi
  8004201603:	00 00 00 
  8004201606:	b8 00 00 00 00       	mov    $0x0,%eax
  800420160b:	48 ba 77 9c 20 04 80 	movabs $0x8004209c77,%rdx
  8004201612:	00 00 00 
  8004201615:	ff d2                	callq  *%rdx
  8004201617:	c7 45 fc 00 00 00 00 	movl   $0x0,-0x4(%rbp)
  800420161e:	e9 f2 00 00 00       	jmpq   8004201715 <mon_backtrace+0x2ab>
  8004201623:	8b 45 fc             	mov    -0x4(%rbp),%eax
  8004201626:	48 98                	cltq   
  8004201628:	48 83 c0 0a          	add    $0xa,%rax
  800420162c:	48 8b 84 c5 d8 fa ff 	mov    -0x528(%rbp,%rax,8),%rax
  8004201633:	ff 
  8004201634:	48 85 c0             	test   %rax,%rax
  8004201637:	75 35                	jne    800420166e <mon_backtrace+0x204>
  8004201639:	48 b9 5e e0 21 04 80 	movabs $0x800421e05e,%rcx
  8004201640:	00 00 00 
  8004201643:	48 ba 74 e0 21 04 80 	movabs $0x800421e074,%rdx
  800420164a:	00 00 00 
  800420164d:	be 78 00 00 00       	mov    $0x78,%esi
  8004201652:	48 bf 89 e0 21 04 80 	movabs $0x800421e089,%rdi
  8004201659:	00 00 00 
  800420165c:	b8 00 00 00 00       	mov    $0x0,%eax
  8004201661:	49 b8 c9 04 20 04 80 	movabs $0x80042004c9,%r8
  8004201668:	00 00 00 
  800420166b:	41 ff d0             	callq  *%r8
  800420166e:	8b 45 fc             	mov    -0x4(%rbp),%eax
  8004201671:	48 98                	cltq   
  8004201673:	48 83 c0 0a          	add    $0xa,%rax
  8004201677:	48 8b 94 c5 d8 fa ff 	mov    -0x528(%rbp,%rax,8),%rdx
  800420167e:	ff 
  800420167f:	48 8b 45 d8          	mov    -0x28(%rbp),%rax
  8004201683:	48 01 d0             	add    %rdx,%rax
  8004201686:	48 89 45 c0          	mov    %rax,-0x40(%rbp)
  800420168a:	8b 45 fc             	mov    -0x4(%rbp),%eax
  800420168d:	48 98                	cltq   
  800420168f:	48 83 c0 08          	add    $0x8,%rax
  8004201693:	8b 84 85 dc fa ff ff 	mov    -0x524(%rbp,%rax,4),%eax
  800420169a:	83 f8 02             	cmp    $0x2,%eax
  800420169d:	74 31                	je     80042016d0 <mon_backtrace+0x266>
  800420169f:	83 f8 02             	cmp    $0x2,%eax
  80042016a2:	7f 07                	jg     80042016ab <mon_backtrace+0x241>
  80042016a4:	83 f8 01             	cmp    $0x1,%eax
  80042016a7:	74 37                	je     80042016e0 <mon_backtrace+0x276>
  80042016a9:	eb 44                	jmp    80042016ef <mon_backtrace+0x285>
  80042016ab:	83 f8 04             	cmp    $0x4,%eax
  80042016ae:	74 12                	je     80042016c2 <mon_backtrace+0x258>
  80042016b0:	83 f8 08             	cmp    $0x8,%eax
  80042016b3:	75 3a                	jne    80042016ef <mon_backtrace+0x285>
  80042016b5:	48 8b 45 c0          	mov    -0x40(%rbp),%rax
  80042016b9:	48 8b 00             	mov    (%rax),%rax
  80042016bc:	48 89 45 d0          	mov    %rax,-0x30(%rbp)
  80042016c0:	eb 2d                	jmp    80042016ef <mon_backtrace+0x285>
  80042016c2:	48 8b 45 c0          	mov    -0x40(%rbp),%rax
  80042016c6:	8b 00                	mov    (%rax),%eax
  80042016c8:	89 c0                	mov    %eax,%eax
  80042016ca:	48 89 45 d0          	mov    %rax,-0x30(%rbp)
  80042016ce:	eb 1f                	jmp    80042016ef <mon_backtrace+0x285>
  80042016d0:	48 8b 45 c0          	mov    -0x40(%rbp),%rax
  80042016d4:	0f b7 00             	movzwl (%rax),%eax
  80042016d7:	0f b7 c0             	movzwl %ax,%eax
  80042016da:	48 89 45 d0          	mov    %rax,-0x30(%rbp)
  80042016de:	eb 0f                	jmp    80042016ef <mon_backtrace+0x285>
  80042016e0:	48 8b 45 c0          	mov    -0x40(%rbp),%rax
  80042016e4:	0f b6 00             	movzbl (%rax),%eax
  80042016e7:	0f b6 c0             	movzbl %al,%eax
  80042016ea:	48 89 45 d0          	mov    %rax,-0x30(%rbp)
  80042016ee:	90                   	nop
  80042016ef:	48 8b 45 d0          	mov    -0x30(%rbp),%rax
  80042016f3:	48 89 c6             	mov    %rax,%rsi
  80042016f6:	48 bf 9b e0 21 04 80 	movabs $0x800421e09b,%rdi
  80042016fd:	00 00 00 
  8004201700:	b8 00 00 00 00       	mov    $0x0,%eax
  8004201705:	48 ba 77 9c 20 04 80 	movabs $0x8004209c77,%rdx
  800420170c:	00 00 00 
  800420170f:	ff d2                	callq  *%rdx
  8004201711:	83 45 fc 01          	addl   $0x1,-0x4(%rbp)
  8004201715:	8b 85 f8 fa ff ff    	mov    -0x508(%rbp),%eax
  800420171b:	3b 45 fc             	cmp    -0x4(%rbp),%eax
  800420171e:	0f 8f ff fe ff ff    	jg     8004201623 <mon_backtrace+0x1b9>
  8004201724:	0f b7 85 ea fb ff ff 	movzwl -0x416(%rbp),%eax
  800420172b:	0f b7 c0             	movzwl %ax,%eax
  800420172e:	3d 0b 04 00 00       	cmp    $0x40b,%eax
  8004201733:	74 48                	je     800420177d <mon_backtrace+0x313>
  8004201735:	3d 9c 05 00 00       	cmp    $0x59c,%eax
  800420173a:	75 17                	jne    8004201753 <mon_backtrace+0x2e9>
  800420173c:	48 8b 95 f0 fb ff ff 	mov    -0x410(%rbp),%rdx
  8004201743:	48 8b 45 d8          	mov    -0x28(%rbp),%rax
  8004201747:	48 01 d0             	add    %rdx,%rax
  800420174a:	48 8b 00             	mov    (%rax),%rax
  800420174d:	48 89 45 f0          	mov    %rax,-0x10(%rbp)
  8004201751:	eb 2b                	jmp    800420177e <mon_backtrace+0x314>
  8004201753:	48 ba a2 e0 21 04 80 	movabs $0x800421e0a2,%rdx
  800420175a:	00 00 00 
  800420175d:	be 92 00 00 00       	mov    $0x92,%esi
  8004201762:	48 bf 89 e0 21 04 80 	movabs $0x800421e089,%rdi
  8004201769:	00 00 00 
  800420176c:	b8 00 00 00 00       	mov    $0x0,%eax
  8004201771:	48 b9 c9 04 20 04 80 	movabs $0x80042004c9,%rcx
  8004201778:	00 00 00 
  800420177b:	ff d1                	callq  *%rcx
  800420177d:	90                   	nop
  800420177e:	0f b7 85 8a fc ff ff 	movzwl -0x376(%rbp),%eax
  8004201785:	0f b7 c0             	movzwl %ax,%eax
  8004201788:	3d 0b 04 00 00       	cmp    $0x40b,%eax
  800420178d:	74 48                	je     80042017d7 <mon_backtrace+0x36d>
  800420178f:	3d 9c 05 00 00       	cmp    $0x59c,%eax
  8004201794:	75 17                	jne    80042017ad <mon_backtrace+0x343>
  8004201796:	48 8b 95 90 fc ff ff 	mov    -0x370(%rbp),%rdx
  800420179d:	48 8b 45 d8          	mov    -0x28(%rbp),%rax
  80042017a1:	48 01 d0             	add    %rdx,%rax
  80042017a4:	48 8b 00             	mov    (%rax),%rax
  80042017a7:	48 89 45 e8          	mov    %rax,-0x18(%rbp)
  80042017ab:	eb 2b                	jmp    80042017d8 <mon_backtrace+0x36e>
  80042017ad:	48 ba a2 e0 21 04 80 	movabs $0x800421e0a2,%rdx
  80042017b4:	00 00 00 
  80042017b7:	be 9d 00 00 00       	mov    $0x9d,%esi
  80042017bc:	48 bf 89 e0 21 04 80 	movabs $0x800421e089,%rdi
  80042017c3:	00 00 00 
  80042017c6:	b8 00 00 00 00       	mov    $0x0,%eax
  80042017cb:	48 b9 c9 04 20 04 80 	movabs $0x80042004c9,%rcx
  80042017d2:	00 00 00 
  80042017d5:	ff d1                	callq  *%rcx
  80042017d7:	90                   	nop
  80042017d8:	48 8b 45 d8          	mov    -0x28(%rbp),%rax
  80042017dc:	48 89 45 e0          	mov    %rax,-0x20(%rbp)
  80042017e0:	eb 17                	jmp    80042017f9 <mon_backtrace+0x38f>
  80042017e2:	48 8b 45 f0          	mov    -0x10(%rbp),%rax
  80042017e6:	48 8b 40 08          	mov    0x8(%rax),%rax
  80042017ea:	48 89 45 e8          	mov    %rax,-0x18(%rbp)
  80042017ee:	48 8b 45 f0          	mov    -0x10(%rbp),%rax
  80042017f2:	48 8b 00             	mov    (%rax),%rax
  80042017f5:	48 89 45 f0          	mov    %rax,-0x10(%rbp)
  80042017f9:	48 bf b3 e0 21 04 80 	movabs $0x800421e0b3,%rdi
  8004201800:	00 00 00 
  8004201803:	b8 00 00 00 00       	mov    $0x0,%eax
  8004201808:	48 ba 77 9c 20 04 80 	movabs $0x8004209c77,%rdx
  800420180f:	00 00 00 
  8004201812:	ff d2                	callq  *%rdx
  8004201814:	48 83 7d f0 00       	cmpq   $0x0,-0x10(%rbp)
  8004201819:	0f 85 de fc ff ff    	jne    80042014fd <mon_backtrace+0x93>
  800420181f:	b8 00 00 00 00       	mov    $0x0,%eax
  8004201824:	c9                   	leaveq 
  8004201825:	c3                   	retq   

0000008004201826 <mon_exit>:
  8004201826:	55                   	push   %rbp
  8004201827:	48 89 e5             	mov    %rsp,%rbp
  800420182a:	48 83 ec 18          	sub    $0x18,%rsp
  800420182e:	89 7d fc             	mov    %edi,-0x4(%rbp)
  8004201831:	48 89 75 f0          	mov    %rsi,-0x10(%rbp)
  8004201835:	48 89 55 e8          	mov    %rdx,-0x18(%rbp)
  8004201839:	b8 ff ff ff ff       	mov    $0xffffffff,%eax
  800420183e:	c9                   	leaveq 
  800420183f:	c3                   	retq   

0000008004201840 <runcmd>:
  8004201840:	55                   	push   %rbp
  8004201841:	48 89 e5             	mov    %rsp,%rbp
  8004201844:	48 81 ec a0 00 00 00 	sub    $0xa0,%rsp
  800420184b:	48 89 bd 68 ff ff ff 	mov    %rdi,-0x98(%rbp)
  8004201852:	48 89 b5 60 ff ff ff 	mov    %rsi,-0xa0(%rbp)
  8004201859:	c7 45 fc 00 00 00 00 	movl   $0x0,-0x4(%rbp)
  8004201860:	8b 45 fc             	mov    -0x4(%rbp),%eax
  8004201863:	48 98                	cltq   
  8004201865:	48 c7 84 c5 70 ff ff 	movq   $0x0,-0x90(%rbp,%rax,8)
  800420186c:	ff 00 00 00 00 
  8004201871:	eb 15                	jmp    8004201888 <runcmd+0x48>
  8004201873:	48 8b 85 68 ff ff ff 	mov    -0x98(%rbp),%rax
  800420187a:	48 8d 50 01          	lea    0x1(%rax),%rdx
  800420187e:	48 89 95 68 ff ff ff 	mov    %rdx,-0x98(%rbp)
  8004201885:	c6 00 00             	movb   $0x0,(%rax)
  8004201888:	48 8b 85 68 ff ff ff 	mov    -0x98(%rbp),%rax
  800420188f:	0f b6 00             	movzbl (%rax),%eax
  8004201892:	84 c0                	test   %al,%al
  8004201894:	74 2a                	je     80042018c0 <runcmd+0x80>
  8004201896:	48 8b 85 68 ff ff ff 	mov    -0x98(%rbp),%rax
  800420189d:	0f b6 00             	movzbl (%rax),%eax
  80042018a0:	0f be c0             	movsbl %al,%eax
  80042018a3:	89 c6                	mov    %eax,%esi
  80042018a5:	48 bf b5 e0 21 04 80 	movabs $0x800421e0b5,%rdi
  80042018ac:	00 00 00 
  80042018af:	48 b8 38 0b 21 04 80 	movabs $0x8004210b38,%rax
  80042018b6:	00 00 00 
  80042018b9:	ff d0                	callq  *%rax
  80042018bb:	48 85 c0             	test   %rax,%rax
  80042018be:	75 b3                	jne    8004201873 <runcmd+0x33>
  80042018c0:	48 8b 85 68 ff ff ff 	mov    -0x98(%rbp),%rax
  80042018c7:	0f b6 00             	movzbl (%rax),%eax
  80042018ca:	84 c0                	test   %al,%al
  80042018cc:	75 21                	jne    80042018ef <runcmd+0xaf>
  80042018ce:	90                   	nop
  80042018cf:	8b 45 fc             	mov    -0x4(%rbp),%eax
  80042018d2:	48 98                	cltq   
  80042018d4:	48 c7 84 c5 70 ff ff 	movq   $0x0,-0x90(%rbp,%rax,8)
  80042018db:	ff 00 00 00 00 
  80042018e0:	83 7d fc 00          	cmpl   $0x0,-0x4(%rbp)
  80042018e4:	0f 85 a1 00 00 00    	jne    800420198b <runcmd+0x14b>
  80042018ea:	e9 92 00 00 00       	jmpq   8004201981 <runcmd+0x141>
  80042018ef:	83 7d fc 0f          	cmpl   $0xf,-0x4(%rbp)
  80042018f3:	75 2a                	jne    800420191f <runcmd+0xdf>
  80042018f5:	be 10 00 00 00       	mov    $0x10,%esi
  80042018fa:	48 bf ba e0 21 04 80 	movabs $0x800421e0ba,%rdi
  8004201901:	00 00 00 
  8004201904:	b8 00 00 00 00       	mov    $0x0,%eax
  8004201909:	48 ba 77 9c 20 04 80 	movabs $0x8004209c77,%rdx
  8004201910:	00 00 00 
  8004201913:	ff d2                	callq  *%rdx
  8004201915:	b8 00 00 00 00       	mov    $0x0,%eax
  800420191a:	e9 30 01 00 00       	jmpq   8004201a4f <runcmd+0x20f>
  800420191f:	8b 45 fc             	mov    -0x4(%rbp),%eax
  8004201922:	8d 50 01             	lea    0x1(%rax),%edx
  8004201925:	89 55 fc             	mov    %edx,-0x4(%rbp)
  8004201928:	48 98                	cltq   
  800420192a:	48 8b 95 68 ff ff ff 	mov    -0x98(%rbp),%rdx
  8004201931:	48 89 94 c5 70 ff ff 	mov    %rdx,-0x90(%rbp,%rax,8)
  8004201938:	ff 
  8004201939:	eb 08                	jmp    8004201943 <runcmd+0x103>
  800420193b:	48 83 85 68 ff ff ff 	addq   $0x1,-0x98(%rbp)
  8004201942:	01 
  8004201943:	48 8b 85 68 ff ff ff 	mov    -0x98(%rbp),%rax
  800420194a:	0f b6 00             	movzbl (%rax),%eax
  800420194d:	84 c0                	test   %al,%al
  800420194f:	74 2a                	je     800420197b <runcmd+0x13b>
  8004201951:	48 8b 85 68 ff ff ff 	mov    -0x98(%rbp),%rax
  8004201958:	0f b6 00             	movzbl (%rax),%eax
  800420195b:	0f be c0             	movsbl %al,%eax
  800420195e:	89 c6                	mov    %eax,%esi
  8004201960:	48 bf b5 e0 21 04 80 	movabs $0x800421e0b5,%rdi
  8004201967:	00 00 00 
  800420196a:	48 b8 38 0b 21 04 80 	movabs $0x8004210b38,%rax
  8004201971:	00 00 00 
  8004201974:	ff d0                	callq  *%rax
  8004201976:	48 85 c0             	test   %rax,%rax
  8004201979:	74 c0                	je     800420193b <runcmd+0xfb>
  800420197b:	90                   	nop
  800420197c:	e9 07 ff ff ff       	jmpq   8004201888 <runcmd+0x48>
  8004201981:	b8 00 00 00 00       	mov    $0x0,%eax
  8004201986:	e9 c4 00 00 00       	jmpq   8004201a4f <runcmd+0x20f>
  800420198b:	c7 45 f8 00 00 00 00 	movl   $0x0,-0x8(%rbp)
  8004201992:	e9 82 00 00 00       	jmpq   8004201a19 <runcmd+0x1d9>
  8004201997:	48 b9 80 55 23 04 80 	movabs $0x8004235580,%rcx
  800420199e:	00 00 00 
  80042019a1:	8b 45 f8             	mov    -0x8(%rbp),%eax
  80042019a4:	48 63 d0             	movslq %eax,%rdx
  80042019a7:	48 89 d0             	mov    %rdx,%rax
  80042019aa:	48 01 c0             	add    %rax,%rax
  80042019ad:	48 01 d0             	add    %rdx,%rax
  80042019b0:	48 c1 e0 03          	shl    $0x3,%rax
  80042019b4:	48 01 c8             	add    %rcx,%rax
  80042019b7:	48 8b 10             	mov    (%rax),%rdx
  80042019ba:	48 8b 85 70 ff ff ff 	mov    -0x90(%rbp),%rax
  80042019c1:	48 89 d6             	mov    %rdx,%rsi
  80042019c4:	48 89 c7             	mov    %rax,%rdi
  80042019c7:	48 b8 74 0a 21 04 80 	movabs $0x8004210a74,%rax
  80042019ce:	00 00 00 
  80042019d1:	ff d0                	callq  *%rax
  80042019d3:	85 c0                	test   %eax,%eax
  80042019d5:	75 3e                	jne    8004201a15 <runcmd+0x1d5>
  80042019d7:	48 b9 80 55 23 04 80 	movabs $0x8004235580,%rcx
  80042019de:	00 00 00 
  80042019e1:	8b 45 f8             	mov    -0x8(%rbp),%eax
  80042019e4:	48 63 d0             	movslq %eax,%rdx
  80042019e7:	48 89 d0             	mov    %rdx,%rax
  80042019ea:	48 01 c0             	add    %rax,%rax
  80042019ed:	48 01 d0             	add    %rdx,%rax
  80042019f0:	48 c1 e0 03          	shl    $0x3,%rax
  80042019f4:	48 01 c8             	add    %rcx,%rax
  80042019f7:	48 83 c0 10          	add    $0x10,%rax
  80042019fb:	48 8b 00             	mov    (%rax),%rax
  80042019fe:	48 8b 95 60 ff ff ff 	mov    -0xa0(%rbp),%rdx
  8004201a05:	48 8d b5 70 ff ff ff 	lea    -0x90(%rbp),%rsi
  8004201a0c:	8b 4d fc             	mov    -0x4(%rbp),%ecx
  8004201a0f:	89 cf                	mov    %ecx,%edi
  8004201a11:	ff d0                	callq  *%rax
  8004201a13:	eb 3a                	jmp    8004201a4f <runcmd+0x20f>
  8004201a15:	83 45 f8 01          	addl   $0x1,-0x8(%rbp)
  8004201a19:	8b 45 f8             	mov    -0x8(%rbp),%eax
  8004201a1c:	83 f8 03             	cmp    $0x3,%eax
  8004201a1f:	0f 86 72 ff ff ff    	jbe    8004201997 <runcmd+0x157>
  8004201a25:	48 8b 85 70 ff ff ff 	mov    -0x90(%rbp),%rax
  8004201a2c:	48 89 c6             	mov    %rax,%rsi
  8004201a2f:	48 bf d7 e0 21 04 80 	movabs $0x800421e0d7,%rdi
  8004201a36:	00 00 00 
  8004201a39:	b8 00 00 00 00       	mov    $0x0,%eax
  8004201a3e:	48 ba 77 9c 20 04 80 	movabs $0x8004209c77,%rdx
  8004201a45:	00 00 00 
  8004201a48:	ff d2                	callq  *%rdx
  8004201a4a:	b8 00 00 00 00       	mov    $0x0,%eax
  8004201a4f:	c9                   	leaveq 
  8004201a50:	c3                   	retq   

0000008004201a51 <monitor>:
  8004201a51:	55                   	push   %rbp
  8004201a52:	48 89 e5             	mov    %rsp,%rbp
  8004201a55:	48 83 ec 20          	sub    $0x20,%rsp
  8004201a59:	48 89 7d e8          	mov    %rdi,-0x18(%rbp)
  8004201a5d:	48 bf f0 e0 21 04 80 	movabs $0x800421e0f0,%rdi
  8004201a64:	00 00 00 
  8004201a67:	b8 00 00 00 00       	mov    $0x0,%eax
  8004201a6c:	48 ba 77 9c 20 04 80 	movabs $0x8004209c77,%rdx
  8004201a73:	00 00 00 
  8004201a76:	ff d2                	callq  *%rdx
  8004201a78:	48 bf 18 e1 21 04 80 	movabs $0x800421e118,%rdi
  8004201a7f:	00 00 00 
  8004201a82:	b8 00 00 00 00       	mov    $0x0,%eax
  8004201a87:	48 ba 77 9c 20 04 80 	movabs $0x8004209c77,%rdx
  8004201a8e:	00 00 00 
  8004201a91:	ff d2                	callq  *%rdx
  8004201a93:	48 83 7d e8 00       	cmpq   $0x0,-0x18(%rbp)
  8004201a98:	74 13                	je     8004201aad <monitor+0x5c>
  8004201a9a:	48 8b 45 e8          	mov    -0x18(%rbp),%rax
  8004201a9e:	48 89 c7             	mov    %rax,%rdi
  8004201aa1:	48 b8 6e c9 20 04 80 	movabs $0x800420c96e,%rax
  8004201aa8:	00 00 00 
  8004201aab:	ff d0                	callq  *%rax
  8004201aad:	48 bf 3d e1 21 04 80 	movabs $0x800421e13d,%rdi
  8004201ab4:	00 00 00 
  8004201ab7:	48 b8 51 07 21 04 80 	movabs $0x8004210751,%rax
  8004201abe:	00 00 00 
  8004201ac1:	ff d0                	callq  *%rax
  8004201ac3:	48 89 45 f8          	mov    %rax,-0x8(%rbp)
  8004201ac7:	48 83 7d f8 00       	cmpq   $0x0,-0x8(%rbp)
  8004201acc:	74 20                	je     8004201aee <monitor+0x9d>
  8004201ace:	48 8b 55 e8          	mov    -0x18(%rbp),%rdx
  8004201ad2:	48 8b 45 f8          	mov    -0x8(%rbp),%rax
  8004201ad6:	48 89 d6             	mov    %rdx,%rsi
  8004201ad9:	48 89 c7             	mov    %rax,%rdi
  8004201adc:	48 b8 40 18 20 04 80 	movabs $0x8004201840,%rax
  8004201ae3:	00 00 00 
  8004201ae6:	ff d0                	callq  *%rax
  8004201ae8:	85 c0                	test   %eax,%eax
  8004201aea:	79 02                	jns    8004201aee <monitor+0x9d>
  8004201aec:	eb 02                	jmp    8004201af0 <monitor+0x9f>
  8004201aee:	eb bd                	jmp    8004201aad <monitor+0x5c>
  8004201af0:	c9                   	leaveq 
  8004201af1:	c3                   	retq   

0000008004201af2 <page2ppn>:
  8004201af2:	55                   	push   %rbp
  8004201af3:	48 89 e5             	mov    %rsp,%rbp
  8004201af6:	48 83 ec 08          	sub    $0x8,%rsp
  8004201afa:	48 89 7d f8          	mov    %rdi,-0x8(%rbp)
  8004201afe:	48 8b 55 f8          	mov    -0x8(%rbp),%rdx
  8004201b02:	48 b8 00 d6 6d 04 80 	movabs $0x80046dd600,%rax
  8004201b09:	00 00 00 
  8004201b0c:	48 8b 00             	mov    (%rax),%rax
  8004201b0f:	48 29 c2             	sub    %rax,%rdx
  8004201b12:	48 89 d0             	mov    %rdx,%rax
  8004201b15:	48 c1 f8 04          	sar    $0x4,%rax
  8004201b19:	c9                   	leaveq 
  8004201b1a:	c3                   	retq   

0000008004201b1b <page2pa>:
  8004201b1b:	55                   	push   %rbp
  8004201b1c:	48 89 e5             	mov    %rsp,%rbp
  8004201b1f:	48 83 ec 08          	sub    $0x8,%rsp
  8004201b23:	48 89 7d f8          	mov    %rdi,-0x8(%rbp)
  8004201b27:	48 8b 45 f8          	mov    -0x8(%rbp),%rax
  8004201b2b:	48 89 c7             	mov    %rax,%rdi
  8004201b2e:	48 b8 f2 1a 20 04 80 	movabs $0x8004201af2,%rax
  8004201b35:	00 00 00 
  8004201b38:	ff d0                	callq  *%rax
  8004201b3a:	48 c1 e0 0c          	shl    $0xc,%rax
  8004201b3e:	c9                   	leaveq 
  8004201b3f:	c3                   	retq   

0000008004201b40 <pa2page>:
  8004201b40:	55                   	push   %rbp
  8004201b41:	48 89 e5             	mov    %rsp,%rbp
  8004201b44:	48 83 ec 10          	sub    $0x10,%rsp
  8004201b48:	48 89 7d f8          	mov    %rdi,-0x8(%rbp)
  8004201b4c:	48 8b 45 f8          	mov    -0x8(%rbp),%rax
  8004201b50:	48 c1 e8 0c          	shr    $0xc,%rax
  8004201b54:	48 89 c2             	mov    %rax,%rdx
  8004201b57:	48 b8 f8 d5 6d 04 80 	movabs $0x80046dd5f8,%rax
  8004201b5e:	00 00 00 
  8004201b61:	48 8b 00             	mov    (%rax),%rax
  8004201b64:	48 39 c2             	cmp    %rax,%rdx
  8004201b67:	72 2a                	jb     8004201b93 <pa2page+0x53>
  8004201b69:	48 ba 48 e1 21 04 80 	movabs $0x800421e148,%rdx
  8004201b70:	00 00 00 
  8004201b73:	be 5b 00 00 00       	mov    $0x5b,%esi
  8004201b78:	48 bf 67 e1 21 04 80 	movabs $0x800421e167,%rdi
  8004201b7f:	00 00 00 
  8004201b82:	b8 00 00 00 00       	mov    $0x0,%eax
  8004201b87:	48 b9 c9 04 20 04 80 	movabs $0x80042004c9,%rcx
  8004201b8e:	00 00 00 
  8004201b91:	ff d1                	callq  *%rcx
  8004201b93:	48 b8 00 d6 6d 04 80 	movabs $0x80046dd600,%rax
  8004201b9a:	00 00 00 
  8004201b9d:	48 8b 00             	mov    (%rax),%rax
  8004201ba0:	48 8b 55 f8          	mov    -0x8(%rbp),%rdx
  8004201ba4:	48 c1 ea 0c          	shr    $0xc,%rdx
  8004201ba8:	48 c1 e2 04          	shl    $0x4,%rdx
  8004201bac:	48 01 d0             	add    %rdx,%rax
  8004201baf:	c9                   	leaveq 
  8004201bb0:	c3                   	retq   

0000008004201bb1 <page2kva>:
  8004201bb1:	55                   	push   %rbp
  8004201bb2:	48 89 e5             	mov    %rsp,%rbp
  8004201bb5:	48 83 ec 20          	sub    $0x20,%rsp
  8004201bb9:	48 89 7d e8          	mov    %rdi,-0x18(%rbp)
  8004201bbd:	48 8b 45 e8          	mov    -0x18(%rbp),%rax
  8004201bc1:	48 89 c7             	mov    %rax,%rdi
  8004201bc4:	48 b8 1b 1b 20 04 80 	movabs $0x8004201b1b,%rax
  8004201bcb:	00 00 00 
  8004201bce:	ff d0                	callq  *%rax
  8004201bd0:	48 89 45 f8          	mov    %rax,-0x8(%rbp)
  8004201bd4:	48 8b 45 f8          	mov    -0x8(%rbp),%rax
  8004201bd8:	48 c1 e8 0c          	shr    $0xc,%rax
  8004201bdc:	89 45 f4             	mov    %eax,-0xc(%rbp)
  8004201bdf:	8b 55 f4             	mov    -0xc(%rbp),%edx
  8004201be2:	48 b8 f8 d5 6d 04 80 	movabs $0x80046dd5f8,%rax
  8004201be9:	00 00 00 
  8004201bec:	48 8b 00             	mov    (%rax),%rax
  8004201bef:	48 39 c2             	cmp    %rax,%rdx
  8004201bf2:	72 32                	jb     8004201c26 <page2kva+0x75>
  8004201bf4:	48 8b 45 f8          	mov    -0x8(%rbp),%rax
  8004201bf8:	48 89 c1             	mov    %rax,%rcx
  8004201bfb:	48 ba 78 e1 21 04 80 	movabs $0x800421e178,%rdx
  8004201c02:	00 00 00 
  8004201c05:	be 62 00 00 00       	mov    $0x62,%esi
  8004201c0a:	48 bf 67 e1 21 04 80 	movabs $0x800421e167,%rdi
  8004201c11:	00 00 00 
  8004201c14:	b8 00 00 00 00       	mov    $0x0,%eax
  8004201c19:	49 b8 c9 04 20 04 80 	movabs $0x80042004c9,%r8
  8004201c20:	00 00 00 
  8004201c23:	41 ff d0             	callq  *%r8
  8004201c26:	48 ba 00 00 00 04 80 	movabs $0x8004000000,%rdx
  8004201c2d:	00 00 00 
  8004201c30:	48 8b 45 f8          	mov    -0x8(%rbp),%rax
  8004201c34:	48 01 d0             	add    %rdx,%rax
  8004201c37:	c9                   	leaveq 
  8004201c38:	c3                   	retq   

0000008004201c39 <restrictive_type>:
  8004201c39:	55                   	push   %rbp
  8004201c3a:	48 89 e5             	mov    %rsp,%rbp
  8004201c3d:	48 83 ec 08          	sub    $0x8,%rsp
  8004201c41:	89 7d fc             	mov    %edi,-0x4(%rbp)
  8004201c44:	89 75 f8             	mov    %esi,-0x8(%rbp)
  8004201c47:	83 7d fc 05          	cmpl   $0x5,-0x4(%rbp)
  8004201c4b:	74 06                	je     8004201c53 <restrictive_type+0x1a>
  8004201c4d:	83 7d f8 05          	cmpl   $0x5,-0x8(%rbp)
  8004201c51:	75 07                	jne    8004201c5a <restrictive_type+0x21>
  8004201c53:	b8 05 00 00 00       	mov    $0x5,%eax
  8004201c58:	eb 3e                	jmp    8004201c98 <restrictive_type+0x5f>
  8004201c5a:	83 7d fc 04          	cmpl   $0x4,-0x4(%rbp)
  8004201c5e:	74 06                	je     8004201c66 <restrictive_type+0x2d>
  8004201c60:	83 7d f8 04          	cmpl   $0x4,-0x8(%rbp)
  8004201c64:	75 07                	jne    8004201c6d <restrictive_type+0x34>
  8004201c66:	b8 04 00 00 00       	mov    $0x4,%eax
  8004201c6b:	eb 2b                	jmp    8004201c98 <restrictive_type+0x5f>
  8004201c6d:	83 7d fc 02          	cmpl   $0x2,-0x4(%rbp)
  8004201c71:	74 06                	je     8004201c79 <restrictive_type+0x40>
  8004201c73:	83 7d f8 02          	cmpl   $0x2,-0x8(%rbp)
  8004201c77:	75 07                	jne    8004201c80 <restrictive_type+0x47>
  8004201c79:	b8 02 00 00 00       	mov    $0x2,%eax
  8004201c7e:	eb 18                	jmp    8004201c98 <restrictive_type+0x5f>
  8004201c80:	83 7d fc 03          	cmpl   $0x3,-0x4(%rbp)
  8004201c84:	74 06                	je     8004201c8c <restrictive_type+0x53>
  8004201c86:	83 7d f8 03          	cmpl   $0x3,-0x8(%rbp)
  8004201c8a:	75 07                	jne    8004201c93 <restrictive_type+0x5a>
  8004201c8c:	b8 03 00 00 00       	mov    $0x3,%eax
  8004201c91:	eb 05                	jmp    8004201c98 <restrictive_type+0x5f>
  8004201c93:	b8 01 00 00 00       	mov    $0x1,%eax
  8004201c98:	c9                   	leaveq 
  8004201c99:	c3                   	retq   

0000008004201c9a <nvram_read>:
  8004201c9a:	55                   	push   %rbp
  8004201c9b:	48 89 e5             	mov    %rsp,%rbp
  8004201c9e:	53                   	push   %rbx
  8004201c9f:	48 83 ec 18          	sub    $0x18,%rsp
  8004201ca3:	89 7d ec             	mov    %edi,-0x14(%rbp)
  8004201ca6:	8b 45 ec             	mov    -0x14(%rbp),%eax
  8004201ca9:	89 c7                	mov    %eax,%edi
  8004201cab:	48 b8 fb 98 20 04 80 	movabs $0x80042098fb,%rax
  8004201cb2:	00 00 00 
  8004201cb5:	ff d0                	callq  *%rax
  8004201cb7:	89 c3                	mov    %eax,%ebx
  8004201cb9:	8b 45 ec             	mov    -0x14(%rbp),%eax
  8004201cbc:	83 c0 01             	add    $0x1,%eax
  8004201cbf:	89 c7                	mov    %eax,%edi
  8004201cc1:	48 b8 fb 98 20 04 80 	movabs $0x80042098fb,%rax
  8004201cc8:	00 00 00 
  8004201ccb:	ff d0                	callq  *%rax
  8004201ccd:	c1 e0 08             	shl    $0x8,%eax
  8004201cd0:	09 d8                	or     %ebx,%eax
  8004201cd2:	48 83 c4 18          	add    $0x18,%rsp
  8004201cd6:	5b                   	pop    %rbx
  8004201cd7:	5d                   	pop    %rbp
  8004201cd8:	c3                   	retq   

0000008004201cd9 <multiboot_read>:
  8004201cd9:	55                   	push   %rbp
  8004201cda:	48 89 e5             	mov    %rsp,%rbp
  8004201cdd:	41 54                	push   %r12
  8004201cdf:	53                   	push   %rbx
  8004201ce0:	48 81 ec b0 00 00 00 	sub    $0xb0,%rsp
  8004201ce7:	48 89 bd 58 ff ff ff 	mov    %rdi,-0xa8(%rbp)
  8004201cee:	48 89 b5 50 ff ff ff 	mov    %rsi,-0xb0(%rbp)
  8004201cf5:	48 89 95 48 ff ff ff 	mov    %rdx,-0xb8(%rbp)
  8004201cfc:	48 89 e0             	mov    %rsp,%rax
  8004201cff:	49 89 c4             	mov    %rax,%r12
  8004201d02:	48 8b 85 58 ff ff ff 	mov    -0xa8(%rbp),%rax
  8004201d09:	8b 40 30             	mov    0x30(%rax),%eax
  8004201d0c:	89 c0                	mov    %eax,%eax
  8004201d0e:	48 89 45 d8          	mov    %rax,-0x28(%rbp)
  8004201d12:	48 8b 85 58 ff ff ff 	mov    -0xa8(%rbp),%rax
  8004201d19:	8b 40 2c             	mov    0x2c(%rax),%eax
  8004201d1c:	ba ab aa aa aa       	mov    $0xaaaaaaab,%edx
  8004201d21:	f7 e2                	mul    %edx
  8004201d23:	89 d0                	mov    %edx,%eax
  8004201d25:	c1 e8 04             	shr    $0x4,%eax
  8004201d28:	89 c0                	mov    %eax,%eax
  8004201d2a:	48 89 c2             	mov    %rax,%rdx
  8004201d2d:	48 83 ea 01          	sub    $0x1,%rdx
  8004201d31:	48 89 55 d0          	mov    %rdx,-0x30(%rbp)
  8004201d35:	49 89 c0             	mov    %rax,%r8
  8004201d38:	41 b9 00 00 00 00    	mov    $0x0,%r9d
  8004201d3e:	48 89 c1             	mov    %rax,%rcx
  8004201d41:	bb 00 00 00 00       	mov    $0x0,%ebx
  8004201d46:	48 c1 e0 03          	shl    $0x3,%rax
  8004201d4a:	48 8d 50 07          	lea    0x7(%rax),%rdx
  8004201d4e:	b8 10 00 00 00       	mov    $0x10,%eax
  8004201d53:	48 83 e8 01          	sub    $0x1,%rax
  8004201d57:	48 01 d0             	add    %rdx,%rax
  8004201d5a:	bb 10 00 00 00       	mov    $0x10,%ebx
  8004201d5f:	ba 00 00 00 00       	mov    $0x0,%edx
  8004201d64:	48 f7 f3             	div    %rbx
  8004201d67:	48 6b c0 10          	imul   $0x10,%rax,%rax
  8004201d6b:	48 29 c4             	sub    %rax,%rsp
  8004201d6e:	48 89 e0             	mov    %rsp,%rax
  8004201d71:	48 83 c0 07          	add    $0x7,%rax
  8004201d75:	48 c1 e8 03          	shr    $0x3,%rax
  8004201d79:	48 c1 e0 03          	shl    $0x3,%rax
  8004201d7d:	48 89 45 c8          	mov    %rax,-0x38(%rbp)
  8004201d81:	48 bf 9b e1 21 04 80 	movabs $0x800421e19b,%rdi
  8004201d88:	00 00 00 
  8004201d8b:	b8 00 00 00 00       	mov    $0x0,%eax
  8004201d90:	48 ba 77 9c 20 04 80 	movabs $0x8004209c77,%rdx
  8004201d97:	00 00 00 
  8004201d9a:	ff d2                	callq  *%rdx
  8004201d9c:	c7 45 ec 00 00 00 00 	movl   $0x0,-0x14(%rbp)
  8004201da3:	e9 6c 01 00 00       	jmpq   8004201f14 <multiboot_read+0x23b>
  8004201da8:	8b 45 ec             	mov    -0x14(%rbp),%eax
  8004201dab:	48 63 d0             	movslq %eax,%rdx
  8004201dae:	48 89 d0             	mov    %rdx,%rax
  8004201db1:	48 01 c0             	add    %rax,%rax
  8004201db4:	48 01 d0             	add    %rdx,%rax
  8004201db7:	48 c1 e0 03          	shl    $0x3,%rax
  8004201dbb:	48 89 c2             	mov    %rax,%rdx
  8004201dbe:	48 8b 45 d8          	mov    -0x28(%rbp),%rax
  8004201dc2:	48 01 d0             	add    %rdx,%rax
  8004201dc5:	48 89 45 c0          	mov    %rax,-0x40(%rbp)
  8004201dc9:	48 8b 45 c0          	mov    -0x40(%rbp),%rax
  8004201dcd:	8b 40 08             	mov    0x8(%rax),%eax
  8004201dd0:	89 c0                	mov    %eax,%eax
  8004201dd2:	48 c1 e0 20          	shl    $0x20,%rax
  8004201dd6:	48 89 c2             	mov    %rax,%rdx
  8004201dd9:	48 8b 45 c0          	mov    -0x40(%rbp),%rax
  8004201ddd:	8b 40 04             	mov    0x4(%rax),%eax
  8004201de0:	89 c0                	mov    %eax,%eax
  8004201de2:	48 01 d0             	add    %rdx,%rax
  8004201de5:	48 89 45 b8          	mov    %rax,-0x48(%rbp)
  8004201de9:	48 8b 45 c0          	mov    -0x40(%rbp),%rax
  8004201ded:	8b 40 10             	mov    0x10(%rax),%eax
  8004201df0:	89 c0                	mov    %eax,%eax
  8004201df2:	48 c1 e0 20          	shl    $0x20,%rax
  8004201df6:	48 89 c2             	mov    %rax,%rdx
  8004201df9:	48 8b 45 c0          	mov    -0x40(%rbp),%rax
  8004201dfd:	8b 40 0c             	mov    0xc(%rax),%eax
  8004201e00:	89 c0                	mov    %eax,%eax
  8004201e02:	48 01 d0             	add    %rdx,%rax
  8004201e05:	48 89 45 b0          	mov    %rax,-0x50(%rbp)
  8004201e09:	48 8b 45 c0          	mov    -0x40(%rbp),%rax
  8004201e0d:	8b 70 14             	mov    0x14(%rax),%esi
  8004201e10:	48 8b 45 c0          	mov    -0x40(%rbp),%rax
  8004201e14:	8b 00                	mov    (%rax),%eax
  8004201e16:	48 8b 4d b0          	mov    -0x50(%rbp),%rcx
  8004201e1a:	48 8b 55 b8          	mov    -0x48(%rbp),%rdx
  8004201e1e:	41 89 f0             	mov    %esi,%r8d
  8004201e21:	89 c6                	mov    %eax,%esi
  8004201e23:	48 bf b0 e1 21 04 80 	movabs $0x800421e1b0,%rdi
  8004201e2a:	00 00 00 
  8004201e2d:	b8 00 00 00 00       	mov    $0x0,%eax
  8004201e32:	49 b9 77 9c 20 04 80 	movabs $0x8004209c77,%r9
  8004201e39:	00 00 00 
  8004201e3c:	41 ff d1             	callq  *%r9
  8004201e3f:	48 8b 45 c0          	mov    -0x40(%rbp),%rax
  8004201e43:	8b 40 14             	mov    0x14(%rax),%eax
  8004201e46:	83 f8 05             	cmp    $0x5,%eax
  8004201e49:	77 0b                	ja     8004201e56 <multiboot_read+0x17d>
  8004201e4b:	48 8b 45 c0          	mov    -0x40(%rbp),%rax
  8004201e4f:	8b 40 14             	mov    0x14(%rax),%eax
  8004201e52:	85 c0                	test   %eax,%eax
  8004201e54:	75 0b                	jne    8004201e61 <multiboot_read+0x188>
  8004201e56:	48 8b 45 c0          	mov    -0x40(%rbp),%rax
  8004201e5a:	c7 40 14 02 00 00 00 	movl   $0x2,0x14(%rax)
  8004201e61:	c7 45 e8 00 00 00 00 	movl   $0x0,-0x18(%rbp)
  8004201e68:	e9 85 00 00 00       	jmpq   8004201ef2 <multiboot_read+0x219>
  8004201e6d:	48 8b 45 c8          	mov    -0x38(%rbp),%rax
  8004201e71:	8b 55 e8             	mov    -0x18(%rbp),%edx
  8004201e74:	48 63 d2             	movslq %edx,%rdx
  8004201e77:	48 8b 04 d0          	mov    (%rax,%rdx,8),%rax
  8004201e7b:	48 89 45 a8          	mov    %rax,-0x58(%rbp)
  8004201e7f:	48 8b 45 a8          	mov    -0x58(%rbp),%rax
  8004201e83:	8b 40 08             	mov    0x8(%rax),%eax
  8004201e86:	89 c0                	mov    %eax,%eax
  8004201e88:	48 c1 e0 20          	shl    $0x20,%rax
  8004201e8c:	48 89 c2             	mov    %rax,%rdx
  8004201e8f:	48 8b 45 a8          	mov    -0x58(%rbp),%rax
  8004201e93:	8b 40 04             	mov    0x4(%rax),%eax
  8004201e96:	89 c0                	mov    %eax,%eax
  8004201e98:	48 01 d0             	add    %rdx,%rax
  8004201e9b:	48 89 45 a0          	mov    %rax,-0x60(%rbp)
  8004201e9f:	48 8b 45 a0          	mov    -0x60(%rbp),%rax
  8004201ea3:	48 3b 45 b8          	cmp    -0x48(%rbp),%rax
  8004201ea7:	76 45                	jbe    8004201eee <multiboot_read+0x215>
  8004201ea9:	8b 45 ec             	mov    -0x14(%rbp),%eax
  8004201eac:	83 c0 01             	add    $0x1,%eax
  8004201eaf:	89 45 e4             	mov    %eax,-0x1c(%rbp)
  8004201eb2:	eb 30                	jmp    8004201ee4 <multiboot_read+0x20b>
  8004201eb4:	48 8b 45 c8          	mov    -0x38(%rbp),%rax
  8004201eb8:	8b 55 e4             	mov    -0x1c(%rbp),%edx
  8004201ebb:	48 63 d2             	movslq %edx,%rdx
  8004201ebe:	48 c1 e2 03          	shl    $0x3,%rdx
  8004201ec2:	48 01 c2             	add    %rax,%rdx
  8004201ec5:	48 8b 45 c8          	mov    -0x38(%rbp),%rax
  8004201ec9:	8b 4d e4             	mov    -0x1c(%rbp),%ecx
  8004201ecc:	48 63 c9             	movslq %ecx,%rcx
  8004201ecf:	48 c1 e1 03          	shl    $0x3,%rcx
  8004201ed3:	48 83 e9 08          	sub    $0x8,%rcx
  8004201ed7:	48 01 c8             	add    %rcx,%rax
  8004201eda:	48 8b 00             	mov    (%rax),%rax
  8004201edd:	48 89 02             	mov    %rax,(%rdx)
  8004201ee0:	83 6d e4 01          	subl   $0x1,-0x1c(%rbp)
  8004201ee4:	8b 45 e4             	mov    -0x1c(%rbp),%eax
  8004201ee7:	3b 45 e8             	cmp    -0x18(%rbp),%eax
  8004201eea:	75 c8                	jne    8004201eb4 <multiboot_read+0x1db>
  8004201eec:	eb 10                	jmp    8004201efe <multiboot_read+0x225>
  8004201eee:	83 45 e8 01          	addl   $0x1,-0x18(%rbp)
  8004201ef2:	8b 45 e8             	mov    -0x18(%rbp),%eax
  8004201ef5:	3b 45 ec             	cmp    -0x14(%rbp),%eax
  8004201ef8:	0f 8c 6f ff ff ff    	jl     8004201e6d <multiboot_read+0x194>
  8004201efe:	48 8b 45 c8          	mov    -0x38(%rbp),%rax
  8004201f02:	8b 55 e8             	mov    -0x18(%rbp),%edx
  8004201f05:	48 63 d2             	movslq %edx,%rdx
  8004201f08:	48 8b 4d c0          	mov    -0x40(%rbp),%rcx
  8004201f0c:	48 89 0c d0          	mov    %rcx,(%rax,%rdx,8)
  8004201f10:	83 45 ec 01          	addl   $0x1,-0x14(%rbp)
  8004201f14:	8b 45 ec             	mov    -0x14(%rbp),%eax
  8004201f17:	48 63 c8             	movslq %eax,%rcx
  8004201f1a:	48 8b 85 58 ff ff ff 	mov    -0xa8(%rbp),%rax
  8004201f21:	8b 40 2c             	mov    0x2c(%rax),%eax
  8004201f24:	ba ab aa aa aa       	mov    $0xaaaaaaab,%edx
  8004201f29:	f7 e2                	mul    %edx
  8004201f2b:	89 d0                	mov    %edx,%eax
  8004201f2d:	c1 e8 04             	shr    $0x4,%eax
  8004201f30:	89 c0                	mov    %eax,%eax
  8004201f32:	48 39 c1             	cmp    %rax,%rcx
  8004201f35:	0f 82 6d fe ff ff    	jb     8004201da8 <multiboot_read+0xcf>
  8004201f3b:	48 bf e7 e1 21 04 80 	movabs $0x800421e1e7,%rdi
  8004201f42:	00 00 00 
  8004201f45:	b8 00 00 00 00       	mov    $0x0,%eax
  8004201f4a:	48 ba 77 9c 20 04 80 	movabs $0x8004209c77,%rdx
  8004201f51:	00 00 00 
  8004201f54:	ff d2                	callq  *%rdx
  8004201f56:	c7 45 ec 01 00 00 00 	movl   $0x1,-0x14(%rbp)
  8004201f5d:	e9 93 01 00 00       	jmpq   80042020f5 <multiboot_read+0x41c>
  8004201f62:	8b 45 ec             	mov    -0x14(%rbp),%eax
  8004201f65:	8d 50 ff             	lea    -0x1(%rax),%edx
  8004201f68:	48 8b 45 c8          	mov    -0x38(%rbp),%rax
  8004201f6c:	48 63 d2             	movslq %edx,%rdx
  8004201f6f:	48 8b 04 d0          	mov    (%rax,%rdx,8),%rax
  8004201f73:	48 89 45 98          	mov    %rax,-0x68(%rbp)
  8004201f77:	48 8b 45 c8          	mov    -0x38(%rbp),%rax
  8004201f7b:	8b 55 ec             	mov    -0x14(%rbp),%edx
  8004201f7e:	48 63 d2             	movslq %edx,%rdx
  8004201f81:	48 8b 04 d0          	mov    (%rax,%rdx,8),%rax
  8004201f85:	48 89 45 90          	mov    %rax,-0x70(%rbp)
  8004201f89:	48 8b 45 90          	mov    -0x70(%rbp),%rax
  8004201f8d:	8b 40 08             	mov    0x8(%rax),%eax
  8004201f90:	89 c0                	mov    %eax,%eax
  8004201f92:	48 c1 e0 20          	shl    $0x20,%rax
  8004201f96:	48 89 c2             	mov    %rax,%rdx
  8004201f99:	48 8b 45 90          	mov    -0x70(%rbp),%rax
  8004201f9d:	8b 40 04             	mov    0x4(%rax),%eax
  8004201fa0:	89 c0                	mov    %eax,%eax
  8004201fa2:	48 01 d0             	add    %rdx,%rax
  8004201fa5:	48 89 45 88          	mov    %rax,-0x78(%rbp)
  8004201fa9:	48 8b 45 98          	mov    -0x68(%rbp),%rax
  8004201fad:	8b 40 08             	mov    0x8(%rax),%eax
  8004201fb0:	89 c0                	mov    %eax,%eax
  8004201fb2:	48 c1 e0 20          	shl    $0x20,%rax
  8004201fb6:	48 89 c2             	mov    %rax,%rdx
  8004201fb9:	48 8b 45 98          	mov    -0x68(%rbp),%rax
  8004201fbd:	8b 40 04             	mov    0x4(%rax),%eax
  8004201fc0:	89 c0                	mov    %eax,%eax
  8004201fc2:	48 01 d0             	add    %rdx,%rax
  8004201fc5:	48 89 45 80          	mov    %rax,-0x80(%rbp)
  8004201fc9:	48 8b 45 98          	mov    -0x68(%rbp),%rax
  8004201fcd:	8b 40 10             	mov    0x10(%rax),%eax
  8004201fd0:	89 c0                	mov    %eax,%eax
  8004201fd2:	48 c1 e0 20          	shl    $0x20,%rax
  8004201fd6:	48 89 c2             	mov    %rax,%rdx
  8004201fd9:	48 8b 45 98          	mov    -0x68(%rbp),%rax
  8004201fdd:	8b 40 0c             	mov    0xc(%rax),%eax
  8004201fe0:	89 c0                	mov    %eax,%eax
  8004201fe2:	48 01 d0             	add    %rdx,%rax
  8004201fe5:	48 89 85 78 ff ff ff 	mov    %rax,-0x88(%rbp)
  8004201fec:	48 8b 45 90          	mov    -0x70(%rbp),%rax
  8004201ff0:	8b 40 10             	mov    0x10(%rax),%eax
  8004201ff3:	89 c0                	mov    %eax,%eax
  8004201ff5:	48 c1 e0 20          	shl    $0x20,%rax
  8004201ff9:	48 89 c2             	mov    %rax,%rdx
  8004201ffc:	48 8b 45 90          	mov    -0x70(%rbp),%rax
  8004202000:	8b 40 0c             	mov    0xc(%rax),%eax
  8004202003:	89 c0                	mov    %eax,%eax
  8004202005:	48 01 d0             	add    %rdx,%rax
  8004202008:	48 89 85 70 ff ff ff 	mov    %rax,-0x90(%rbp)
  800420200f:	48 8b 85 78 ff ff ff 	mov    -0x88(%rbp),%rax
  8004202016:	48 8b 55 80          	mov    -0x80(%rbp),%rdx
  800420201a:	48 01 d0             	add    %rdx,%rax
  800420201d:	48 3b 45 88          	cmp    -0x78(%rbp),%rax
  8004202021:	75 7c                	jne    800420209f <multiboot_read+0x3c6>
  8004202023:	48 8b 45 98          	mov    -0x68(%rbp),%rax
  8004202027:	8b 50 14             	mov    0x14(%rax),%edx
  800420202a:	48 8b 45 90          	mov    -0x70(%rbp),%rax
  800420202e:	8b 40 14             	mov    0x14(%rax),%eax
  8004202031:	39 c2                	cmp    %eax,%edx
  8004202033:	75 6a                	jne    800420209f <multiboot_read+0x3c6>
  8004202035:	48 8b 85 78 ff ff ff 	mov    -0x88(%rbp),%rax
  800420203c:	89 c2                	mov    %eax,%edx
  800420203e:	48 8b 85 70 ff ff ff 	mov    -0x90(%rbp),%rax
  8004202045:	01 c2                	add    %eax,%edx
  8004202047:	48 8b 45 90          	mov    -0x70(%rbp),%rax
  800420204b:	89 50 0c             	mov    %edx,0xc(%rax)
  800420204e:	48 8b 85 70 ff ff ff 	mov    -0x90(%rbp),%rax
  8004202055:	48 8b 95 78 ff ff ff 	mov    -0x88(%rbp),%rdx
  800420205c:	48 01 d0             	add    %rdx,%rax
  800420205f:	48 c1 e8 20          	shr    $0x20,%rax
  8004202063:	89 c2                	mov    %eax,%edx
  8004202065:	48 8b 45 90          	mov    -0x70(%rbp),%rax
  8004202069:	89 50 10             	mov    %edx,0x10(%rax)
  800420206c:	48 8b 45 98          	mov    -0x68(%rbp),%rax
  8004202070:	8b 50 04             	mov    0x4(%rax),%edx
  8004202073:	48 8b 45 90          	mov    -0x70(%rbp),%rax
  8004202077:	89 50 04             	mov    %edx,0x4(%rax)
  800420207a:	48 8b 45 98          	mov    -0x68(%rbp),%rax
  800420207e:	8b 50 08             	mov    0x8(%rax),%edx
  8004202081:	48 8b 45 90          	mov    -0x70(%rbp),%rax
  8004202085:	89 50 08             	mov    %edx,0x8(%rax)
  8004202088:	8b 45 ec             	mov    -0x14(%rbp),%eax
  800420208b:	8d 50 ff             	lea    -0x1(%rax),%edx
  800420208e:	48 8b 45 c8          	mov    -0x38(%rbp),%rax
  8004202092:	48 63 d2             	movslq %edx,%rdx
  8004202095:	48 c7 04 d0 00 00 00 	movq   $0x0,(%rax,%rdx,8)
  800420209c:	00 
  800420209d:	eb 52                	jmp    80042020f1 <multiboot_read+0x418>
  800420209f:	48 8b 85 78 ff ff ff 	mov    -0x88(%rbp),%rax
  80042020a6:	48 8b 55 80          	mov    -0x80(%rbp),%rdx
  80042020aa:	48 01 d0             	add    %rdx,%rax
  80042020ad:	48 3b 45 88          	cmp    -0x78(%rbp),%rax
  80042020b1:	76 3e                	jbe    80042020f1 <multiboot_read+0x418>
  80042020b3:	48 8b 45 90          	mov    -0x70(%rbp),%rax
  80042020b7:	8b 50 14             	mov    0x14(%rax),%edx
  80042020ba:	48 8b 45 98          	mov    -0x68(%rbp),%rax
  80042020be:	8b 40 14             	mov    0x14(%rax),%eax
  80042020c1:	89 d6                	mov    %edx,%esi
  80042020c3:	89 c7                	mov    %eax,%edi
  80042020c5:	48 b8 39 1c 20 04 80 	movabs $0x8004201c39,%rax
  80042020cc:	00 00 00 
  80042020cf:	ff d0                	callq  *%rax
  80042020d1:	89 85 6c ff ff ff    	mov    %eax,-0x94(%rbp)
  80042020d7:	48 8b 45 98          	mov    -0x68(%rbp),%rax
  80042020db:	8b 95 6c ff ff ff    	mov    -0x94(%rbp),%edx
  80042020e1:	89 50 14             	mov    %edx,0x14(%rax)
  80042020e4:	48 8b 45 90          	mov    -0x70(%rbp),%rax
  80042020e8:	8b 95 6c ff ff ff    	mov    -0x94(%rbp),%edx
  80042020ee:	89 50 14             	mov    %edx,0x14(%rax)
  80042020f1:	83 45 ec 01          	addl   $0x1,-0x14(%rbp)
  80042020f5:	8b 45 ec             	mov    -0x14(%rbp),%eax
  80042020f8:	48 63 c8             	movslq %eax,%rcx
  80042020fb:	48 8b 85 58 ff ff ff 	mov    -0xa8(%rbp),%rax
  8004202102:	8b 40 2c             	mov    0x2c(%rax),%eax
  8004202105:	ba ab aa aa aa       	mov    $0xaaaaaaab,%edx
  800420210a:	f7 e2                	mul    %edx
  800420210c:	89 d0                	mov    %edx,%eax
  800420210e:	c1 e8 04             	shr    $0x4,%eax
  8004202111:	89 c0                	mov    %eax,%eax
  8004202113:	48 39 c1             	cmp    %rax,%rcx
  8004202116:	0f 82 46 fe ff ff    	jb     8004201f62 <multiboot_read+0x289>
  800420211c:	c7 45 ec 00 00 00 00 	movl   $0x0,-0x14(%rbp)
  8004202123:	e9 dc 00 00 00       	jmpq   8004202204 <multiboot_read+0x52b>
  8004202128:	48 8b 45 c8          	mov    -0x38(%rbp),%rax
  800420212c:	8b 55 ec             	mov    -0x14(%rbp),%edx
  800420212f:	48 63 d2             	movslq %edx,%rdx
  8004202132:	48 8b 04 d0          	mov    (%rax,%rdx,8),%rax
  8004202136:	48 89 85 60 ff ff ff 	mov    %rax,-0xa0(%rbp)
  800420213d:	48 83 bd 60 ff ff ff 	cmpq   $0x0,-0xa0(%rbp)
  8004202144:	00 
  8004202145:	0f 84 b5 00 00 00    	je     8004202200 <multiboot_read+0x527>
  800420214b:	48 8b 85 60 ff ff ff 	mov    -0xa0(%rbp),%rax
  8004202152:	8b 40 14             	mov    0x14(%rax),%eax
  8004202155:	83 f8 01             	cmp    $0x1,%eax
  8004202158:	74 13                	je     800420216d <multiboot_read+0x494>
  800420215a:	48 8b 85 60 ff ff ff 	mov    -0xa0(%rbp),%rax
  8004202161:	8b 40 14             	mov    0x14(%rax),%eax
  8004202164:	83 f8 03             	cmp    $0x3,%eax
  8004202167:	0f 85 93 00 00 00    	jne    8004202200 <multiboot_read+0x527>
  800420216d:	48 8b 85 60 ff ff ff 	mov    -0xa0(%rbp),%rax
  8004202174:	8b 40 04             	mov    0x4(%rax),%eax
  8004202177:	3d ff ff 0f 00       	cmp    $0xfffff,%eax
  800420217c:	77 49                	ja     80042021c7 <multiboot_read+0x4ee>
  800420217e:	48 8b 85 60 ff ff ff 	mov    -0xa0(%rbp),%rax
  8004202185:	8b 40 08             	mov    0x8(%rax),%eax
  8004202188:	85 c0                	test   %eax,%eax
  800420218a:	75 3b                	jne    80042021c7 <multiboot_read+0x4ee>
  800420218c:	48 8b 85 50 ff ff ff 	mov    -0xb0(%rbp),%rax
  8004202193:	48 8b 10             	mov    (%rax),%rdx
  8004202196:	48 8b 85 60 ff ff ff 	mov    -0xa0(%rbp),%rax
  800420219d:	8b 40 10             	mov    0x10(%rax),%eax
  80042021a0:	89 c0                	mov    %eax,%eax
  80042021a2:	48 c1 e0 20          	shl    $0x20,%rax
  80042021a6:	48 89 c1             	mov    %rax,%rcx
  80042021a9:	48 8b 85 60 ff ff ff 	mov    -0xa0(%rbp),%rax
  80042021b0:	8b 40 0c             	mov    0xc(%rax),%eax
  80042021b3:	89 c0                	mov    %eax,%eax
  80042021b5:	48 01 c8             	add    %rcx,%rax
  80042021b8:	48 01 c2             	add    %rax,%rdx
  80042021bb:	48 8b 85 50 ff ff ff 	mov    -0xb0(%rbp),%rax
  80042021c2:	48 89 10             	mov    %rdx,(%rax)
  80042021c5:	eb 39                	jmp    8004202200 <multiboot_read+0x527>
  80042021c7:	48 8b 85 48 ff ff ff 	mov    -0xb8(%rbp),%rax
  80042021ce:	48 8b 10             	mov    (%rax),%rdx
  80042021d1:	48 8b 85 60 ff ff ff 	mov    -0xa0(%rbp),%rax
  80042021d8:	8b 40 10             	mov    0x10(%rax),%eax
  80042021db:	89 c0                	mov    %eax,%eax
  80042021dd:	48 c1 e0 20          	shl    $0x20,%rax
  80042021e1:	48 89 c1             	mov    %rax,%rcx
  80042021e4:	48 8b 85 60 ff ff ff 	mov    -0xa0(%rbp),%rax
  80042021eb:	8b 40 0c             	mov    0xc(%rax),%eax
  80042021ee:	89 c0                	mov    %eax,%eax
  80042021f0:	48 01 c8             	add    %rcx,%rax
  80042021f3:	48 01 c2             	add    %rax,%rdx
  80042021f6:	48 8b 85 48 ff ff ff 	mov    -0xb8(%rbp),%rax
  80042021fd:	48 89 10             	mov    %rdx,(%rax)
  8004202200:	83 45 ec 01          	addl   $0x1,-0x14(%rbp)
  8004202204:	8b 45 ec             	mov    -0x14(%rbp),%eax
  8004202207:	48 63 c8             	movslq %eax,%rcx
  800420220a:	48 8b 85 58 ff ff ff 	mov    -0xa8(%rbp),%rax
  8004202211:	8b 40 2c             	mov    0x2c(%rax),%eax
  8004202214:	ba ab aa aa aa       	mov    $0xaaaaaaab,%edx
  8004202219:	f7 e2                	mul    %edx
  800420221b:	89 d0                	mov    %edx,%eax
  800420221d:	c1 e8 04             	shr    $0x4,%eax
  8004202220:	89 c0                	mov    %eax,%eax
  8004202222:	48 39 c1             	cmp    %rax,%rcx
  8004202225:	0f 82 fd fe ff ff    	jb     8004202128 <multiboot_read+0x44f>
  800420222b:	4c 89 e4             	mov    %r12,%rsp
  800420222e:	48 8d 65 f0          	lea    -0x10(%rbp),%rsp
  8004202232:	5b                   	pop    %rbx
  8004202233:	41 5c                	pop    %r12
  8004202235:	5d                   	pop    %rbp
  8004202236:	c3                   	retq   

0000008004202237 <i386_detect_memory>:
  8004202237:	55                   	push   %rbp
  8004202238:	48 89 e5             	mov    %rsp,%rbp
  800420223b:	48 83 ec 50          	sub    $0x50,%rsp
  800420223f:	48 c7 45 c0 00 00 00 	movq   $0x0,-0x40(%rbp)
  8004202246:	00 
  8004202247:	48 c7 45 b8 00 00 00 	movq   $0x0,-0x48(%rbp)
  800420224e:	00 
  800420224f:	48 b8 00 70 10 00 00 	movabs $0x107000,%rax
  8004202256:	00 00 00 
  8004202259:	48 89 45 f0          	mov    %rax,-0x10(%rbp)
  800420225d:	48 8b 45 f0          	mov    -0x10(%rbp),%rax
  8004202261:	48 8b 00             	mov    (%rax),%rax
  8004202264:	48 89 45 e8          	mov    %rax,-0x18(%rbp)
  8004202268:	48 83 7d e8 00       	cmpq   $0x0,-0x18(%rbp)
  800420226d:	74 2d                	je     800420229c <i386_detect_memory+0x65>
  800420226f:	48 8b 45 e8          	mov    -0x18(%rbp),%rax
  8004202273:	8b 00                	mov    (%rax),%eax
  8004202275:	83 e0 40             	and    $0x40,%eax
  8004202278:	85 c0                	test   %eax,%eax
  800420227a:	74 20                	je     800420229c <i386_detect_memory+0x65>
  800420227c:	48 8d 55 b8          	lea    -0x48(%rbp),%rdx
  8004202280:	48 8d 4d c0          	lea    -0x40(%rbp),%rcx
  8004202284:	48 8b 45 e8          	mov    -0x18(%rbp),%rax
  8004202288:	48 89 ce             	mov    %rcx,%rsi
  800420228b:	48 89 c7             	mov    %rax,%rdi
  800420228e:	48 b8 d9 1c 20 04 80 	movabs $0x8004201cd9,%rax
  8004202295:	00 00 00 
  8004202298:	ff d0                	callq  *%rax
  800420229a:	eb 34                	jmp    80042022d0 <i386_detect_memory+0x99>
  800420229c:	bf 15 00 00 00       	mov    $0x15,%edi
  80042022a1:	48 b8 9a 1c 20 04 80 	movabs $0x8004201c9a,%rax
  80042022a8:	00 00 00 
  80042022ab:	ff d0                	callq  *%rax
  80042022ad:	c1 e0 0a             	shl    $0xa,%eax
  80042022b0:	48 98                	cltq   
  80042022b2:	48 89 45 c0          	mov    %rax,-0x40(%rbp)
  80042022b6:	bf 17 00 00 00       	mov    $0x17,%edi
  80042022bb:	48 b8 9a 1c 20 04 80 	movabs $0x8004201c9a,%rax
  80042022c2:	00 00 00 
  80042022c5:	ff d0                	callq  *%rax
  80042022c7:	c1 e0 0a             	shl    $0xa,%eax
  80042022ca:	48 98                	cltq   
  80042022cc:	48 89 45 b8          	mov    %rax,-0x48(%rbp)
  80042022d0:	48 8b 45 c0          	mov    -0x40(%rbp),%rax
  80042022d4:	48 85 c0             	test   %rax,%rax
  80042022d7:	75 35                	jne    800420230e <i386_detect_memory+0xd7>
  80042022d9:	48 b9 e9 e1 21 04 80 	movabs $0x800421e1e9,%rcx
  80042022e0:	00 00 00 
  80042022e3:	48 ba f1 e1 21 04 80 	movabs $0x800421e1f1,%rdx
  80042022ea:	00 00 00 
  80042022ed:	be 8b 00 00 00       	mov    $0x8b,%esi
  80042022f2:	48 bf 06 e2 21 04 80 	movabs $0x800421e206,%rdi
  80042022f9:	00 00 00 
  80042022fc:	b8 00 00 00 00       	mov    $0x0,%eax
  8004202301:	49 b8 c9 04 20 04 80 	movabs $0x80042004c9,%r8
  8004202308:	00 00 00 
  800420230b:	41 ff d0             	callq  *%r8
  800420230e:	48 8b 45 c0          	mov    -0x40(%rbp),%rax
  8004202312:	48 c1 e8 0c          	shr    $0xc,%rax
  8004202316:	48 89 c2             	mov    %rax,%rdx
  8004202319:	48 b8 30 e2 4d 04 80 	movabs $0x80044de230,%rax
  8004202320:	00 00 00 
  8004202323:	48 89 10             	mov    %rdx,(%rax)
  8004202326:	48 8b 45 b8          	mov    -0x48(%rbp),%rax
  800420232a:	48 c1 e8 0c          	shr    $0xc,%rax
  800420232e:	48 89 45 f8          	mov    %rax,-0x8(%rbp)
  8004202332:	bf 17 00 00 00       	mov    $0x17,%edi
  8004202337:	48 b8 9a 1c 20 04 80 	movabs $0x8004201c9a,%rax
  800420233e:	00 00 00 
  8004202341:	ff d0                	callq  *%rax
  8004202343:	3d ff ff 00 00       	cmp    $0xffff,%eax
  8004202348:	75 2c                	jne    8004202376 <i386_detect_memory+0x13f>
  800420234a:	bf 34 00 00 00       	mov    $0x34,%edi
  800420234f:	48 b8 9a 1c 20 04 80 	movabs $0x8004201c9a,%rax
  8004202356:	00 00 00 
  8004202359:	ff d0                	callq  *%rax
  800420235b:	c1 e0 10             	shl    $0x10,%eax
  800420235e:	48 98                	cltq   
  8004202360:	48 89 45 e0          	mov    %rax,-0x20(%rbp)
  8004202364:	48 8b 45 e0          	mov    -0x20(%rbp),%rax
  8004202368:	48 05 00 00 f0 00    	add    $0xf00000,%rax
  800420236e:	48 c1 e8 0c          	shr    $0xc,%rax
  8004202372:	48 89 45 f8          	mov    %rax,-0x8(%rbp)
  8004202376:	48 83 7d f8 00       	cmpq   $0x0,-0x8(%rbp)
  800420237b:	74 1a                	je     8004202397 <i386_detect_memory+0x160>
  800420237d:	48 8b 45 f8          	mov    -0x8(%rbp),%rax
  8004202381:	48 8d 90 00 01 00 00 	lea    0x100(%rax),%rdx
  8004202388:	48 b8 f8 d5 6d 04 80 	movabs $0x80046dd5f8,%rax
  800420238f:	00 00 00 
  8004202392:	48 89 10             	mov    %rdx,(%rax)
  8004202395:	eb 1a                	jmp    80042023b1 <i386_detect_memory+0x17a>
  8004202397:	48 b8 30 e2 4d 04 80 	movabs $0x80044de230,%rax
  800420239e:	00 00 00 
  80042023a1:	48 8b 10             	mov    (%rax),%rdx
  80042023a4:	48 b8 f8 d5 6d 04 80 	movabs $0x80046dd5f8,%rax
  80042023ab:	00 00 00 
  80042023ae:	48 89 10             	mov    %rdx,(%rax)
  80042023b1:	48 b8 f8 d5 6d 04 80 	movabs $0x80046dd5f8,%rax
  80042023b8:	00 00 00 
  80042023bb:	48 8b 30             	mov    (%rax),%rsi
  80042023be:	48 8b 45 f8          	mov    -0x8(%rbp),%rax
  80042023c2:	48 c1 e0 0c          	shl    $0xc,%rax
  80042023c6:	48 c1 e8 0a          	shr    $0xa,%rax
  80042023ca:	48 89 c1             	mov    %rax,%rcx
  80042023cd:	48 b8 30 e2 4d 04 80 	movabs $0x80044de230,%rax
  80042023d4:	00 00 00 
  80042023d7:	48 8b 00             	mov    (%rax),%rax
  80042023da:	48 c1 e0 0c          	shl    $0xc,%rax
  80042023de:	48 c1 e8 0a          	shr    $0xa,%rax
  80042023e2:	48 89 c2             	mov    %rax,%rdx
  80042023e5:	48 b8 f8 d5 6d 04 80 	movabs $0x80046dd5f8,%rax
  80042023ec:	00 00 00 
  80042023ef:	48 8b 00             	mov    (%rax),%rax
  80042023f2:	48 c1 e0 0c          	shl    $0xc,%rax
  80042023f6:	48 c1 e8 14          	shr    $0x14,%rax
  80042023fa:	49 89 f0             	mov    %rsi,%r8
  80042023fd:	48 89 c6             	mov    %rax,%rsi
  8004202400:	48 bf 18 e2 21 04 80 	movabs $0x800421e218,%rdi
  8004202407:	00 00 00 
  800420240a:	b8 00 00 00 00       	mov    $0x0,%eax
  800420240f:	49 b9 77 9c 20 04 80 	movabs $0x8004209c77,%r9
  8004202416:	00 00 00 
  8004202419:	41 ff d1             	callq  *%r9
  800420241c:	48 c7 45 d8 00 00 32 	movq   $0x320000,-0x28(%rbp)
  8004202423:	00 
  8004202424:	48 c7 45 d0 00 c0 ff 	movq   $0x7ffc000,-0x30(%rbp)
  800420242b:	07 
  800420242c:	48 8b 45 d0          	mov    -0x30(%rbp),%rax
  8004202430:	48 c1 e0 0c          	shl    $0xc,%rax
  8004202434:	48 c1 e8 14          	shr    $0x14,%rax
  8004202438:	48 89 c1             	mov    %rax,%rcx
  800420243b:	48 8b 45 d8          	mov    -0x28(%rbp),%rax
  800420243f:	48 c1 e0 0c          	shl    $0xc,%rax
  8004202443:	48 c1 e8 14          	shr    $0x14,%rax
  8004202447:	48 89 c6             	mov    %rax,%rsi
  800420244a:	48 8b 55 d0          	mov    -0x30(%rbp),%rdx
  800420244e:	48 8b 45 d8          	mov    -0x28(%rbp),%rax
  8004202452:	49 89 c8             	mov    %rcx,%r8
  8004202455:	48 89 d1             	mov    %rdx,%rcx
  8004202458:	48 89 f2             	mov    %rsi,%rdx
  800420245b:	48 89 c6             	mov    %rax,%rsi
  800420245e:	48 bf 68 e2 21 04 80 	movabs $0x800421e268,%rdi
  8004202465:	00 00 00 
  8004202468:	b8 00 00 00 00       	mov    $0x0,%eax
  800420246d:	49 b9 77 9c 20 04 80 	movabs $0x8004209c77,%r9
  8004202474:	00 00 00 
  8004202477:	41 ff d1             	callq  *%r9
  800420247a:	48 8b 45 d8          	mov    -0x28(%rbp),%rax
  800420247e:	48 39 45 d0          	cmp    %rax,-0x30(%rbp)
  8004202482:	48 0f 46 45 d0       	cmovbe -0x30(%rbp),%rax
  8004202487:	48 89 45 c8          	mov    %rax,-0x38(%rbp)
  800420248b:	48 b8 f8 d5 6d 04 80 	movabs $0x80046dd5f8,%rax
  8004202492:	00 00 00 
  8004202495:	48 8b 00             	mov    (%rax),%rax
  8004202498:	48 3b 45 c8          	cmp    -0x38(%rbp),%rax
  800420249c:	76 3a                	jbe    80042024d8 <i386_detect_memory+0x2a1>
  800420249e:	48 8b 45 c8          	mov    -0x38(%rbp),%rax
  80042024a2:	48 8d 90 00 fc ff ff 	lea    -0x400(%rax),%rdx
  80042024a9:	48 b8 f8 d5 6d 04 80 	movabs $0x80046dd5f8,%rax
  80042024b0:	00 00 00 
  80042024b3:	48 89 10             	mov    %rdx,(%rax)
  80042024b6:	48 8b 45 c8          	mov    -0x38(%rbp),%rax
  80042024ba:	48 89 c6             	mov    %rax,%rsi
  80042024bd:	48 bf d0 e2 21 04 80 	movabs $0x800421e2d0,%rdi
  80042024c4:	00 00 00 
  80042024c7:	b8 00 00 00 00       	mov    $0x0,%eax
  80042024cc:	48 ba 77 9c 20 04 80 	movabs $0x8004209c77,%rdx
  80042024d3:	00 00 00 
  80042024d6:	ff d2                	callq  *%rdx
  80042024d8:	c9                   	leaveq 
  80042024d9:	c3                   	retq   

00000080042024da <boot_alloc>:
  80042024da:	55                   	push   %rbp
  80042024db:	48 89 e5             	mov    %rsp,%rbp
  80042024de:	48 83 ec 40          	sub    $0x40,%rsp
  80042024e2:	89 7d cc             	mov    %edi,-0x34(%rbp)
  80042024e5:	48 b8 48 e2 4d 04 80 	movabs $0x80044de248,%rax
  80042024ec:	00 00 00 
  80042024ef:	48 8b 00             	mov    (%rax),%rax
  80042024f2:	48 85 c0             	test   %rax,%rax
  80042024f5:	75 4e                	jne    8004202545 <boot_alloc+0x6b>
  80042024f7:	48 c7 45 f8 00 10 00 	movq   $0x1000,-0x8(%rbp)
  80042024fe:	00 
  80042024ff:	48 b8 d0 d5 6d 04 80 	movabs $0x80046dd5d0,%rax
  8004202506:	00 00 00 
  8004202509:	48 8b 10             	mov    (%rax),%rdx
  800420250c:	48 8b 45 f8          	mov    -0x8(%rbp),%rax
  8004202510:	48 01 d0             	add    %rdx,%rax
  8004202513:	48 83 e8 01          	sub    $0x1,%rax
  8004202517:	48 89 45 f0          	mov    %rax,-0x10(%rbp)
  800420251b:	48 8b 45 f0          	mov    -0x10(%rbp),%rax
  800420251f:	ba 00 00 00 00       	mov    $0x0,%edx
  8004202524:	48 f7 75 f8          	divq   -0x8(%rbp)
  8004202528:	48 89 d0             	mov    %rdx,%rax
  800420252b:	48 8b 55 f0          	mov    -0x10(%rbp),%rdx
  800420252f:	48 29 c2             	sub    %rax,%rdx
  8004202532:	48 89 d0             	mov    %rdx,%rax
  8004202535:	48 89 c2             	mov    %rax,%rdx
  8004202538:	48 b8 48 e2 4d 04 80 	movabs $0x80044de248,%rax
  800420253f:	00 00 00 
  8004202542:	48 89 10             	mov    %rdx,(%rax)
  8004202545:	8b 55 cc             	mov    -0x34(%rbp),%edx
  8004202548:	48 b8 48 e2 4d 04 80 	movabs $0x80044de248,%rax
  800420254f:	00 00 00 
  8004202552:	48 8b 00             	mov    (%rax),%rax
  8004202555:	48 01 c2             	add    %rax,%rdx
  8004202558:	48 b8 48 e2 4d 04 80 	movabs $0x80044de248,%rax
  800420255f:	00 00 00 
  8004202562:	48 8b 00             	mov    (%rax),%rax
  8004202565:	48 39 c2             	cmp    %rax,%rdx
  8004202568:	72 2f                	jb     8004202599 <boot_alloc+0xbf>
  800420256a:	48 b8 48 e2 4d 04 80 	movabs $0x80044de248,%rax
  8004202571:	00 00 00 
  8004202574:	48 8b 10             	mov    (%rax),%rdx
  8004202577:	8b 45 cc             	mov    -0x34(%rbp),%eax
  800420257a:	48 01 c2             	add    %rax,%rdx
  800420257d:	48 b8 f8 d5 6d 04 80 	movabs $0x80046dd5f8,%rax
  8004202584:	00 00 00 
  8004202587:	48 8b 00             	mov    (%rax),%rax
  800420258a:	48 05 00 40 00 08    	add    $0x8004000,%rax
  8004202590:	48 c1 e0 0c          	shl    $0xc,%rax
  8004202594:	48 39 c2             	cmp    %rax,%rdx
  8004202597:	76 2a                	jbe    80042025c3 <boot_alloc+0xe9>
  8004202599:	48 ba 00 e3 21 04 80 	movabs $0x800421e300,%rdx
  80042025a0:	00 00 00 
  80042025a3:	be f3 00 00 00       	mov    $0xf3,%esi
  80042025a8:	48 bf 06 e2 21 04 80 	movabs $0x800421e206,%rdi
  80042025af:	00 00 00 
  80042025b2:	b8 00 00 00 00       	mov    $0x0,%eax
  80042025b7:	48 b9 c9 04 20 04 80 	movabs $0x80042004c9,%rcx
  80042025be:	00 00 00 
  80042025c1:	ff d1                	callq  *%rcx
  80042025c3:	48 b8 48 e2 4d 04 80 	movabs $0x80044de248,%rax
  80042025ca:	00 00 00 
  80042025cd:	48 8b 00             	mov    (%rax),%rax
  80042025d0:	48 89 45 e8          	mov    %rax,-0x18(%rbp)
  80042025d4:	48 c7 45 e0 00 10 00 	movq   $0x1000,-0x20(%rbp)
  80042025db:	00 
  80042025dc:	48 b8 48 e2 4d 04 80 	movabs $0x80044de248,%rax
  80042025e3:	00 00 00 
  80042025e6:	48 8b 10             	mov    (%rax),%rdx
  80042025e9:	8b 45 cc             	mov    -0x34(%rbp),%eax
  80042025ec:	48 01 d0             	add    %rdx,%rax
  80042025ef:	48 89 c2             	mov    %rax,%rdx
  80042025f2:	48 8b 45 e0          	mov    -0x20(%rbp),%rax
  80042025f6:	48 01 d0             	add    %rdx,%rax
  80042025f9:	48 83 e8 01          	sub    $0x1,%rax
  80042025fd:	48 89 45 d8          	mov    %rax,-0x28(%rbp)
  8004202601:	48 8b 45 d8          	mov    -0x28(%rbp),%rax
  8004202605:	ba 00 00 00 00       	mov    $0x0,%edx
  800420260a:	48 f7 75 e0          	divq   -0x20(%rbp)
  800420260e:	48 89 d0             	mov    %rdx,%rax
  8004202611:	48 8b 55 d8          	mov    -0x28(%rbp),%rdx
  8004202615:	48 29 c2             	sub    %rax,%rdx
  8004202618:	48 89 d0             	mov    %rdx,%rax
  800420261b:	48 89 c2             	mov    %rax,%rdx
  800420261e:	48 b8 48 e2 4d 04 80 	movabs $0x80044de248,%rax
  8004202625:	00 00 00 
  8004202628:	48 89 10             	mov    %rdx,(%rax)
  800420262b:	48 8b 45 e8          	mov    -0x18(%rbp),%rax
  800420262f:	c9                   	leaveq 
  8004202630:	c3                   	retq   

0000008004202631 <x64_vm_init>:
  8004202631:	55                   	push   %rbp
  8004202632:	48 89 e5             	mov    %rsp,%rbp
  8004202635:	48 83 c4 80          	add    $0xffffffffffffff80,%rsp
  8004202639:	48 b8 37 22 20 04 80 	movabs $0x8004202237,%rax
  8004202640:	00 00 00 
  8004202643:	ff d0                	callq  *%rax
  8004202645:	bf 00 10 00 00       	mov    $0x1000,%edi
  800420264a:	48 b8 da 24 20 04 80 	movabs $0x80042024da,%rax
  8004202651:	00 00 00 
  8004202654:	ff d0                	callq  *%rax
  8004202656:	48 89 45 f8          	mov    %rax,-0x8(%rbp)
  800420265a:	48 8b 45 f8          	mov    -0x8(%rbp),%rax
  800420265e:	ba 00 10 00 00       	mov    $0x1000,%edx
  8004202663:	be 00 00 00 00       	mov    $0x0,%esi
  8004202668:	48 89 c7             	mov    %rax,%rdi
  800420266b:	48 b8 ab 0b 21 04 80 	movabs $0x8004210bab,%rax
  8004202672:	00 00 00 
  8004202675:	ff d0                	callq  *%rax
  8004202677:	48 b8 f0 d5 6d 04 80 	movabs $0x80046dd5f0,%rax
  800420267e:	00 00 00 
  8004202681:	48 8b 55 f8          	mov    -0x8(%rbp),%rdx
  8004202685:	48 89 10             	mov    %rdx,(%rax)
  8004202688:	48 8b 45 f8          	mov    -0x8(%rbp),%rax
  800420268c:	48 89 45 f0          	mov    %rax,-0x10(%rbp)
  8004202690:	48 b8 ff ff ff 03 80 	movabs $0x8003ffffff,%rax
  8004202697:	00 00 00 
  800420269a:	48 39 45 f0          	cmp    %rax,-0x10(%rbp)
  800420269e:	77 32                	ja     80042026d2 <x64_vm_init+0xa1>
  80042026a0:	48 8b 45 f0          	mov    -0x10(%rbp),%rax
  80042026a4:	48 89 c1             	mov    %rax,%rcx
  80042026a7:	48 ba 28 e3 21 04 80 	movabs $0x800421e328,%rdx
  80042026ae:	00 00 00 
  80042026b1:	be 18 01 00 00       	mov    $0x118,%esi
  80042026b6:	48 bf 06 e2 21 04 80 	movabs $0x800421e206,%rdi
  80042026bd:	00 00 00 
  80042026c0:	b8 00 00 00 00       	mov    $0x0,%eax
  80042026c5:	49 b8 c9 04 20 04 80 	movabs $0x80042004c9,%r8
  80042026cc:	00 00 00 
  80042026cf:	41 ff d0             	callq  *%r8
  80042026d2:	48 ba 00 00 00 fc 7f 	movabs $0xffffff7ffc000000,%rdx
  80042026d9:	ff ff ff 
  80042026dc:	48 8b 45 f0          	mov    -0x10(%rbp),%rax
  80042026e0:	48 01 c2             	add    %rax,%rdx
  80042026e3:	48 b8 e8 d5 6d 04 80 	movabs $0x80046dd5e8,%rax
  80042026ea:	00 00 00 
  80042026ed:	48 89 10             	mov    %rdx,(%rax)
  80042026f0:	48 b8 f8 d5 6d 04 80 	movabs $0x80046dd5f8,%rax
  80042026f7:	00 00 00 
  80042026fa:	48 8b 00             	mov    (%rax),%rax
  80042026fd:	48 c1 e0 04          	shl    $0x4,%rax
  8004202701:	48 89 45 e8          	mov    %rax,-0x18(%rbp)
  8004202705:	48 8b 45 e8          	mov    -0x18(%rbp),%rax
  8004202709:	89 c7                	mov    %eax,%edi
  800420270b:	48 b8 da 24 20 04 80 	movabs $0x80042024da,%rax
  8004202712:	00 00 00 
  8004202715:	ff d0                	callq  *%rax
  8004202717:	48 ba 00 d6 6d 04 80 	movabs $0x80046dd600,%rdx
  800420271e:	00 00 00 
  8004202721:	48 89 02             	mov    %rax,(%rdx)
  8004202724:	48 b8 00 d6 6d 04 80 	movabs $0x80046dd600,%rax
  800420272b:	00 00 00 
  800420272e:	48 8b 00             	mov    (%rax),%rax
  8004202731:	48 8b 55 e8          	mov    -0x18(%rbp),%rdx
  8004202735:	be 00 00 00 00       	mov    $0x0,%esi
  800420273a:	48 89 c7             	mov    %rax,%rdi
  800420273d:	48 b8 ab 0b 21 04 80 	movabs $0x8004210bab,%rax
  8004202744:	00 00 00 
  8004202747:	ff d0                	callq  *%rax
  8004202749:	bf 00 a0 05 00       	mov    $0x5a000,%edi
  800420274e:	48 b8 da 24 20 04 80 	movabs $0x80042024da,%rax
  8004202755:	00 00 00 
  8004202758:	ff d0                	callq  *%rax
  800420275a:	48 ba 58 e2 4d 04 80 	movabs $0x80044de258,%rdx
  8004202761:	00 00 00 
  8004202764:	48 89 02             	mov    %rax,(%rdx)
  8004202767:	48 b8 58 e2 4d 04 80 	movabs $0x80044de258,%rax
  800420276e:	00 00 00 
  8004202771:	48 8b 00             	mov    (%rax),%rax
  8004202774:	ba 00 a0 05 00       	mov    $0x5a000,%edx
  8004202779:	be 00 00 00 00       	mov    $0x0,%esi
  800420277e:	48 89 c7             	mov    %rax,%rdi
  8004202781:	48 b8 ab 0b 21 04 80 	movabs $0x8004210bab,%rax
  8004202788:	00 00 00 
  800420278b:	ff d0                	callq  *%rax
  800420278d:	48 b8 eb 2b 20 04 80 	movabs $0x8004202beb,%rax
  8004202794:	00 00 00 
  8004202797:	ff d0                	callq  *%rax
  8004202799:	48 b8 f8 d5 6d 04 80 	movabs $0x80046dd5f8,%rax
  80042027a0:	00 00 00 
  80042027a3:	48 8b 00             	mov    (%rax),%rax
  80042027a6:	48 c1 e0 04          	shl    $0x4,%rax
  80042027aa:	48 89 45 e8          	mov    %rax,-0x18(%rbp)
  80042027ae:	48 b8 00 d6 6d 04 80 	movabs $0x80046dd600,%rax
  80042027b5:	00 00 00 
  80042027b8:	48 8b 00             	mov    (%rax),%rax
  80042027bb:	48 89 45 e0          	mov    %rax,-0x20(%rbp)
  80042027bf:	48 b8 ff ff ff 03 80 	movabs $0x8003ffffff,%rax
  80042027c6:	00 00 00 
  80042027c9:	48 39 45 e0          	cmp    %rax,-0x20(%rbp)
  80042027cd:	77 32                	ja     8004202801 <x64_vm_init+0x1d0>
  80042027cf:	48 8b 45 e0          	mov    -0x20(%rbp),%rax
  80042027d3:	48 89 c1             	mov    %rax,%rcx
  80042027d6:	48 ba 28 e3 21 04 80 	movabs $0x800421e328,%rdx
  80042027dd:	00 00 00 
  80042027e0:	be 43 01 00 00       	mov    $0x143,%esi
  80042027e5:	48 bf 06 e2 21 04 80 	movabs $0x800421e206,%rdi
  80042027ec:	00 00 00 
  80042027ef:	b8 00 00 00 00       	mov    $0x0,%eax
  80042027f4:	49 b8 c9 04 20 04 80 	movabs $0x80042004c9,%r8
  80042027fb:	00 00 00 
  80042027fe:	41 ff d0             	callq  *%r8
  8004202801:	48 ba 00 00 00 fc 7f 	movabs $0xffffff7ffc000000,%rdx
  8004202808:	ff ff ff 
  800420280b:	48 8b 45 e0          	mov    -0x20(%rbp),%rax
  800420280f:	48 8d 0c 02          	lea    (%rdx,%rax,1),%rcx
  8004202813:	48 b8 f0 d5 6d 04 80 	movabs $0x80046dd5f0,%rax
  800420281a:	00 00 00 
  800420281d:	48 8b 00             	mov    (%rax),%rax
  8004202820:	48 8b 55 e8          	mov    -0x18(%rbp),%rdx
  8004202824:	41 b8 04 00 00 00    	mov    $0x4,%r8d
  800420282a:	48 be 00 00 a0 00 80 	movabs $0x8000a00000,%rsi
  8004202831:	00 00 00 
  8004202834:	48 89 c7             	mov    %rax,%rdi
  8004202837:	48 b8 2a 37 20 04 80 	movabs $0x800420372a,%rax
  800420283e:	00 00 00 
  8004202841:	ff d0                	callq  *%rax
  8004202843:	48 c7 45 d8 00 10 00 	movq   $0x1000,-0x28(%rbp)
  800420284a:	00 
  800420284b:	48 8b 45 d8          	mov    -0x28(%rbp),%rax
  800420284f:	48 05 ff 9f 05 00    	add    $0x59fff,%rax
  8004202855:	48 89 45 d0          	mov    %rax,-0x30(%rbp)
  8004202859:	48 8b 45 d0          	mov    -0x30(%rbp),%rax
  800420285d:	ba 00 00 00 00       	mov    $0x0,%edx
  8004202862:	48 f7 75 d8          	divq   -0x28(%rbp)
  8004202866:	48 89 d0             	mov    %rdx,%rax
  8004202869:	48 8b 55 d0          	mov    -0x30(%rbp),%rdx
  800420286d:	48 29 c2             	sub    %rax,%rdx
  8004202870:	48 89 d0             	mov    %rdx,%rax
  8004202873:	48 89 45 e8          	mov    %rax,-0x18(%rbp)
  8004202877:	48 b8 58 e2 4d 04 80 	movabs $0x80044de258,%rax
  800420287e:	00 00 00 
  8004202881:	48 8b 00             	mov    (%rax),%rax
  8004202884:	48 89 45 c8          	mov    %rax,-0x38(%rbp)
  8004202888:	48 b8 ff ff ff 03 80 	movabs $0x8003ffffff,%rax
  800420288f:	00 00 00 
  8004202892:	48 39 45 c8          	cmp    %rax,-0x38(%rbp)
  8004202896:	77 32                	ja     80042028ca <x64_vm_init+0x299>
  8004202898:	48 8b 45 c8          	mov    -0x38(%rbp),%rax
  800420289c:	48 89 c1             	mov    %rax,%rcx
  800420289f:	48 ba 28 e3 21 04 80 	movabs $0x800421e328,%rdx
  80042028a6:	00 00 00 
  80042028a9:	be 51 01 00 00       	mov    $0x151,%esi
  80042028ae:	48 bf 06 e2 21 04 80 	movabs $0x800421e206,%rdi
  80042028b5:	00 00 00 
  80042028b8:	b8 00 00 00 00       	mov    $0x0,%eax
  80042028bd:	49 b8 c9 04 20 04 80 	movabs $0x80042004c9,%r8
  80042028c4:	00 00 00 
  80042028c7:	41 ff d0             	callq  *%r8
  80042028ca:	48 ba 00 00 00 fc 7f 	movabs $0xffffff7ffc000000,%rdx
  80042028d1:	ff ff ff 
  80042028d4:	48 8b 45 c8          	mov    -0x38(%rbp),%rax
  80042028d8:	48 8d 0c 02          	lea    (%rdx,%rax,1),%rcx
  80042028dc:	48 b8 f0 d5 6d 04 80 	movabs $0x80046dd5f0,%rax
  80042028e3:	00 00 00 
  80042028e6:	48 8b 00             	mov    (%rax),%rax
  80042028e9:	48 8b 55 e8          	mov    -0x18(%rbp),%rdx
  80042028ed:	41 b8 05 00 00 00    	mov    $0x5,%r8d
  80042028f3:	48 be 00 00 80 00 80 	movabs $0x8000800000,%rsi
  80042028fa:	00 00 00 
  80042028fd:	48 89 c7             	mov    %rax,%rdi
  8004202900:	48 b8 2a 37 20 04 80 	movabs $0x800420372a,%rax
  8004202907:	00 00 00 
  800420290a:	ff d0                	callq  *%rax
  800420290c:	48 b8 00 50 22 04 80 	movabs $0x8004225000,%rax
  8004202913:	00 00 00 
  8004202916:	48 89 45 c0          	mov    %rax,-0x40(%rbp)
  800420291a:	48 b8 ff ff ff 03 80 	movabs $0x8003ffffff,%rax
  8004202921:	00 00 00 
  8004202924:	48 39 45 c0          	cmp    %rax,-0x40(%rbp)
  8004202928:	77 32                	ja     800420295c <x64_vm_init+0x32b>
  800420292a:	48 8b 45 c0          	mov    -0x40(%rbp),%rax
  800420292e:	48 89 c1             	mov    %rax,%rcx
  8004202931:	48 ba 28 e3 21 04 80 	movabs $0x800421e328,%rdx
  8004202938:	00 00 00 
  800420293b:	be 62 01 00 00       	mov    $0x162,%esi
  8004202940:	48 bf 06 e2 21 04 80 	movabs $0x800421e206,%rdi
  8004202947:	00 00 00 
  800420294a:	b8 00 00 00 00       	mov    $0x0,%eax
  800420294f:	49 b8 c9 04 20 04 80 	movabs $0x80042004c9,%r8
  8004202956:	00 00 00 
  8004202959:	41 ff d0             	callq  *%r8
  800420295c:	48 ba 00 00 00 fc 7f 	movabs $0xffffff7ffc000000,%rdx
  8004202963:	ff ff ff 
  8004202966:	48 8b 45 c0          	mov    -0x40(%rbp),%rax
  800420296a:	48 01 c2             	add    %rax,%rdx
  800420296d:	48 b8 f0 d5 6d 04 80 	movabs $0x80046dd5f0,%rax
  8004202974:	00 00 00 
  8004202977:	48 8b 00             	mov    (%rax),%rax
  800420297a:	41 b8 03 00 00 00    	mov    $0x3,%r8d
  8004202980:	48 89 d1             	mov    %rdx,%rcx
  8004202983:	ba 00 00 01 00       	mov    $0x10000,%edx
  8004202988:	48 be 00 00 ff 03 80 	movabs $0x8003ff0000,%rsi
  800420298f:	00 00 00 
  8004202992:	48 89 c7             	mov    %rax,%rdi
  8004202995:	48 b8 2a 37 20 04 80 	movabs $0x800420372a,%rax
  800420299c:	00 00 00 
  800420299f:	ff d0                	callq  *%rax
  80042029a1:	48 b8 f8 d5 6d 04 80 	movabs $0x80046dd5f8,%rax
  80042029a8:	00 00 00 
  80042029ab:	48 8b 00             	mov    (%rax),%rax
  80042029ae:	48 c1 e0 0c          	shl    $0xc,%rax
  80042029b2:	48 89 c2             	mov    %rax,%rdx
  80042029b5:	48 b8 f0 d5 6d 04 80 	movabs $0x80046dd5f0,%rax
  80042029bc:	00 00 00 
  80042029bf:	48 8b 00             	mov    (%rax),%rax
  80042029c2:	41 b8 03 00 00 00    	mov    $0x3,%r8d
  80042029c8:	b9 00 00 00 00       	mov    $0x0,%ecx
  80042029cd:	48 be 00 00 00 04 80 	movabs $0x8004000000,%rsi
  80042029d4:	00 00 00 
  80042029d7:	48 89 c7             	mov    %rax,%rdi
  80042029da:	48 b8 2a 37 20 04 80 	movabs $0x800420372a,%rax
  80042029e1:	00 00 00 
  80042029e4:	ff d0                	callq  *%rax
  80042029e6:	48 b8 00 2b 20 04 80 	movabs $0x8004202b00,%rax
  80042029ed:	00 00 00 
  80042029f0:	ff d0                	callq  *%rax
  80042029f2:	48 8b 45 f8          	mov    -0x8(%rbp),%rax
  80042029f6:	48 83 c0 08          	add    $0x8,%rax
  80042029fa:	48 8b 00             	mov    (%rax),%rax
  80042029fd:	48 25 00 f0 ff ff    	and    $0xfffffffffffff000,%rax
  8004202a03:	48 89 45 b8          	mov    %rax,-0x48(%rbp)
  8004202a07:	48 8b 45 b8          	mov    -0x48(%rbp),%rax
  8004202a0b:	48 c1 e8 0c          	shr    $0xc,%rax
  8004202a0f:	89 45 b4             	mov    %eax,-0x4c(%rbp)
  8004202a12:	8b 55 b4             	mov    -0x4c(%rbp),%edx
  8004202a15:	48 b8 f8 d5 6d 04 80 	movabs $0x80046dd5f8,%rax
  8004202a1c:	00 00 00 
  8004202a1f:	48 8b 00             	mov    (%rax),%rax
  8004202a22:	48 39 c2             	cmp    %rax,%rdx
  8004202a25:	72 32                	jb     8004202a59 <x64_vm_init+0x428>
  8004202a27:	48 8b 45 b8          	mov    -0x48(%rbp),%rax
  8004202a2b:	48 89 c1             	mov    %rax,%rcx
  8004202a2e:	48 ba 78 e1 21 04 80 	movabs $0x800421e178,%rdx
  8004202a35:	00 00 00 
  8004202a38:	be 82 01 00 00       	mov    $0x182,%esi
  8004202a3d:	48 bf 06 e2 21 04 80 	movabs $0x800421e206,%rdi
  8004202a44:	00 00 00 
  8004202a47:	b8 00 00 00 00       	mov    $0x0,%eax
  8004202a4c:	49 b8 c9 04 20 04 80 	movabs $0x80042004c9,%r8
  8004202a53:	00 00 00 
  8004202a56:	41 ff d0             	callq  *%r8
  8004202a59:	48 ba 00 00 00 04 80 	movabs $0x8004000000,%rdx
  8004202a60:	00 00 00 
  8004202a63:	48 8b 45 b8          	mov    -0x48(%rbp),%rax
  8004202a67:	48 01 d0             	add    %rdx,%rax
  8004202a6a:	48 89 45 a8          	mov    %rax,-0x58(%rbp)
  8004202a6e:	48 8b 45 a8          	mov    -0x58(%rbp),%rax
  8004202a72:	48 8b 00             	mov    (%rax),%rax
  8004202a75:	48 25 00 f0 ff ff    	and    $0xfffffffffffff000,%rax
  8004202a7b:	48 89 45 a0          	mov    %rax,-0x60(%rbp)
  8004202a7f:	48 8b 45 a0          	mov    -0x60(%rbp),%rax
  8004202a83:	48 c1 e8 0c          	shr    $0xc,%rax
  8004202a87:	89 45 9c             	mov    %eax,-0x64(%rbp)
  8004202a8a:	8b 55 9c             	mov    -0x64(%rbp),%edx
  8004202a8d:	48 b8 f8 d5 6d 04 80 	movabs $0x80046dd5f8,%rax
  8004202a94:	00 00 00 
  8004202a97:	48 8b 00             	mov    (%rax),%rax
  8004202a9a:	48 39 c2             	cmp    %rax,%rdx
  8004202a9d:	72 32                	jb     8004202ad1 <x64_vm_init+0x4a0>
  8004202a9f:	48 8b 45 a0          	mov    -0x60(%rbp),%rax
  8004202aa3:	48 89 c1             	mov    %rax,%rcx
  8004202aa6:	48 ba 78 e1 21 04 80 	movabs $0x800421e178,%rdx
  8004202aad:	00 00 00 
  8004202ab0:	be 83 01 00 00       	mov    $0x183,%esi
  8004202ab5:	48 bf 06 e2 21 04 80 	movabs $0x800421e206,%rdi
  8004202abc:	00 00 00 
  8004202abf:	b8 00 00 00 00       	mov    $0x0,%eax
  8004202ac4:	49 b8 c9 04 20 04 80 	movabs $0x80042004c9,%r8
  8004202acb:	00 00 00 
  8004202ace:	41 ff d0             	callq  *%r8
  8004202ad1:	48 ba 00 00 00 04 80 	movabs $0x8004000000,%rdx
  8004202ad8:	00 00 00 
  8004202adb:	48 8b 45 a0          	mov    -0x60(%rbp),%rax
  8004202adf:	48 01 d0             	add    %rdx,%rax
  8004202ae2:	48 89 45 90          	mov    %rax,-0x70(%rbp)
  8004202ae6:	48 b8 e8 d5 6d 04 80 	movabs $0x80046dd5e8,%rax
  8004202aed:	00 00 00 
  8004202af0:	48 8b 00             	mov    (%rax),%rax
  8004202af3:	48 89 45 88          	mov    %rax,-0x78(%rbp)
}

static __inline void
lcr3(uint64_t val)
{
	__asm __volatile("movq %0,%%cr3" : : "r" (val));
  8004202af7:	48 8b 45 88          	mov    -0x78(%rbp),%rax
  8004202afb:	0f 22 d8             	mov    %rax,%cr3
  8004202afe:	c9                   	leaveq 
  8004202aff:	c3                   	retq   

0000008004202b00 <mem_init_mp>:
  8004202b00:	55                   	push   %rbp
  8004202b01:	48 89 e5             	mov    %rsp,%rbp
  8004202b04:	48 83 ec 20          	sub    $0x20,%rsp
  8004202b08:	c7 45 fc 00 00 00 00 	movl   $0x0,-0x4(%rbp)
  8004202b0f:	e9 cb 00 00 00       	jmpq   8004202bdf <mem_init_mp+0xdf>
  8004202b14:	8b 55 fc             	mov    -0x4(%rbp),%edx
  8004202b17:	89 d0                	mov    %edx,%eax
  8004202b19:	01 c0                	add    %eax,%eax
  8004202b1b:	01 d0                	add    %edx,%eax
  8004202b1d:	c1 e0 0f             	shl    $0xf,%eax
  8004202b20:	48 98                	cltq   
  8004202b22:	48 ba 00 00 00 04 80 	movabs $0x8004000000,%rdx
  8004202b29:	00 00 00 
  8004202b2c:	48 29 c2             	sub    %rax,%rdx
  8004202b2f:	48 89 d0             	mov    %rdx,%rax
  8004202b32:	48 89 45 f0          	mov    %rax,-0x10(%rbp)
  8004202b36:	8b 45 fc             	mov    -0x4(%rbp),%eax
  8004202b39:	48 98                	cltq   
  8004202b3b:	48 c1 e0 10          	shl    $0x10,%rax
  8004202b3f:	48 89 c2             	mov    %rax,%rdx
  8004202b42:	48 b8 00 00 6e 04 80 	movabs $0x80046e0000,%rax
  8004202b49:	00 00 00 
  8004202b4c:	48 01 d0             	add    %rdx,%rax
  8004202b4f:	48 89 45 e8          	mov    %rax,-0x18(%rbp)
  8004202b53:	48 b8 ff ff ff 03 80 	movabs $0x8003ffffff,%rax
  8004202b5a:	00 00 00 
  8004202b5d:	48 39 45 e8          	cmp    %rax,-0x18(%rbp)
  8004202b61:	77 32                	ja     8004202b95 <mem_init_mp+0x95>
  8004202b63:	48 8b 45 e8          	mov    -0x18(%rbp),%rax
  8004202b67:	48 89 c1             	mov    %rax,%rcx
  8004202b6a:	48 ba 28 e3 21 04 80 	movabs $0x800421e328,%rdx
  8004202b71:	00 00 00 
  8004202b74:	be a6 01 00 00       	mov    $0x1a6,%esi
  8004202b79:	48 bf 06 e2 21 04 80 	movabs $0x800421e206,%rdi
  8004202b80:	00 00 00 
  8004202b83:	b8 00 00 00 00       	mov    $0x0,%eax
  8004202b88:	49 b8 c9 04 20 04 80 	movabs $0x80042004c9,%r8
  8004202b8f:	00 00 00 
  8004202b92:	41 ff d0             	callq  *%r8
  8004202b95:	48 ba 00 00 00 fc 7f 	movabs $0xffffff7ffc000000,%rdx
  8004202b9c:	ff ff ff 
  8004202b9f:	48 8b 45 e8          	mov    -0x18(%rbp),%rax
  8004202ba3:	48 01 c2             	add    %rax,%rdx
  8004202ba6:	48 8b 45 f0          	mov    -0x10(%rbp),%rax
  8004202baa:	48 8d b0 00 00 ff ff 	lea    -0x10000(%rax),%rsi
  8004202bb1:	48 b8 f0 d5 6d 04 80 	movabs $0x80046dd5f0,%rax
  8004202bb8:	00 00 00 
  8004202bbb:	48 8b 00             	mov    (%rax),%rax
  8004202bbe:	41 b8 03 00 00 00    	mov    $0x3,%r8d
  8004202bc4:	48 89 d1             	mov    %rdx,%rcx
  8004202bc7:	ba 00 00 01 00       	mov    $0x10000,%edx
  8004202bcc:	48 89 c7             	mov    %rax,%rdi
  8004202bcf:	48 b8 2a 37 20 04 80 	movabs $0x800420372a,%rax
  8004202bd6:	00 00 00 
  8004202bd9:	ff d0                	callq  *%rax
  8004202bdb:	83 45 fc 01          	addl   $0x1,-0x4(%rbp)
  8004202bdf:	83 7d fc 03          	cmpl   $0x3,-0x4(%rbp)
  8004202be3:	0f 8e 2b ff ff ff    	jle    8004202b14 <mem_init_mp+0x14>
  8004202be9:	c9                   	leaveq 
  8004202bea:	c3                   	retq   

0000008004202beb <page_init>:
  8004202beb:	55                   	push   %rbp
  8004202bec:	48 89 e5             	mov    %rsp,%rbp
  8004202bef:	48 83 ec 50          	sub    $0x50,%rsp
  8004202bf3:	bf 00 00 00 00       	mov    $0x0,%edi
  8004202bf8:	48 b8 da 24 20 04 80 	movabs $0x80042024da,%rax
  8004202bff:	00 00 00 
  8004202c02:	ff d0                	callq  *%rax
  8004202c04:	48 89 45 e0          	mov    %rax,-0x20(%rbp)
  8004202c08:	48 c7 45 e8 00 00 00 	movq   $0x0,-0x18(%rbp)
  8004202c0f:	00 
  8004202c10:	48 c7 45 f8 00 00 00 	movq   $0x0,-0x8(%rbp)
  8004202c17:	00 
  8004202c18:	e9 65 02 00 00       	jmpq   8004202e82 <page_init+0x297>
  8004202c1d:	c7 45 f4 01 00 00 00 	movl   $0x1,-0xc(%rbp)
  8004202c24:	48 83 7d f8 00       	cmpq   $0x0,-0x8(%rbp)
  8004202c29:	74 1a                	je     8004202c45 <page_init+0x5a>
  8004202c2b:	48 b8 30 e2 4d 04 80 	movabs $0x80044de230,%rax
  8004202c32:	00 00 00 
  8004202c35:	48 8b 00             	mov    (%rax),%rax
  8004202c38:	48 39 45 f8          	cmp    %rax,-0x8(%rbp)
  8004202c3c:	73 07                	jae    8004202c45 <page_init+0x5a>
  8004202c3e:	c7 45 f4 00 00 00 00 	movl   $0x0,-0xc(%rbp)
  8004202c45:	48 83 7d f8 07       	cmpq   $0x7,-0x8(%rbp)
  8004202c4a:	75 07                	jne    8004202c53 <page_init+0x68>
  8004202c4c:	c7 45 f4 01 00 00 00 	movl   $0x1,-0xc(%rbp)
  8004202c53:	48 8b 45 e0          	mov    -0x20(%rbp),%rax
  8004202c57:	48 89 45 d8          	mov    %rax,-0x28(%rbp)
  8004202c5b:	48 b8 ff ff ff 03 80 	movabs $0x8003ffffff,%rax
  8004202c62:	00 00 00 
  8004202c65:	48 39 45 d8          	cmp    %rax,-0x28(%rbp)
  8004202c69:	77 32                	ja     8004202c9d <page_init+0xb2>
  8004202c6b:	48 8b 45 d8          	mov    -0x28(%rbp),%rax
  8004202c6f:	48 89 c1             	mov    %rax,%rcx
  8004202c72:	48 ba 28 e3 21 04 80 	movabs $0x800421e328,%rdx
  8004202c79:	00 00 00 
  8004202c7c:	be d5 01 00 00       	mov    $0x1d5,%esi
  8004202c81:	48 bf 06 e2 21 04 80 	movabs $0x800421e206,%rdi
  8004202c88:	00 00 00 
  8004202c8b:	b8 00 00 00 00       	mov    $0x0,%eax
  8004202c90:	49 b8 c9 04 20 04 80 	movabs $0x80042004c9,%r8
  8004202c97:	00 00 00 
  8004202c9a:	41 ff d0             	callq  *%r8
  8004202c9d:	48 ba 00 00 00 fc 7f 	movabs $0xffffff7ffc000000,%rdx
  8004202ca4:	ff ff ff 
  8004202ca7:	48 8b 45 d8          	mov    -0x28(%rbp),%rax
  8004202cab:	48 01 d0             	add    %rdx,%rax
  8004202cae:	48 c1 e8 0c          	shr    $0xc,%rax
  8004202cb2:	48 3b 45 f8          	cmp    -0x8(%rbp),%rax
  8004202cb6:	77 07                	ja     8004202cbf <page_init+0xd4>
  8004202cb8:	c7 45 f4 00 00 00 00 	movl   $0x0,-0xc(%rbp)
  8004202cbf:	48 8b 45 f8          	mov    -0x8(%rbp),%rax
  8004202cc3:	48 05 00 40 00 08    	add    $0x8004000,%rax
  8004202cc9:	48 c1 e0 0c          	shl    $0xc,%rax
  8004202ccd:	48 89 45 d0          	mov    %rax,-0x30(%rbp)
  8004202cd1:	48 b8 00 20 10 00 00 	movabs $0x102000,%rax
  8004202cd8:	00 00 00 
  8004202cdb:	48 89 45 c8          	mov    %rax,-0x38(%rbp)
  8004202cdf:	48 8b 45 c8          	mov    -0x38(%rbp),%rax
  8004202ce3:	48 c1 e8 0c          	shr    $0xc,%rax
  8004202ce7:	89 45 c4             	mov    %eax,-0x3c(%rbp)
  8004202cea:	8b 55 c4             	mov    -0x3c(%rbp),%edx
  8004202ced:	48 b8 f8 d5 6d 04 80 	movabs $0x80046dd5f8,%rax
  8004202cf4:	00 00 00 
  8004202cf7:	48 8b 00             	mov    (%rax),%rax
  8004202cfa:	48 39 c2             	cmp    %rax,%rdx
  8004202cfd:	72 32                	jb     8004202d31 <page_init+0x146>
  8004202cff:	48 8b 45 c8          	mov    -0x38(%rbp),%rax
  8004202d03:	48 89 c1             	mov    %rax,%rcx
  8004202d06:	48 ba 78 e1 21 04 80 	movabs $0x800421e178,%rdx
  8004202d0d:	00 00 00 
  8004202d10:	be d9 01 00 00       	mov    $0x1d9,%esi
  8004202d15:	48 bf 06 e2 21 04 80 	movabs $0x800421e206,%rdi
  8004202d1c:	00 00 00 
  8004202d1f:	b8 00 00 00 00       	mov    $0x0,%eax
  8004202d24:	49 b8 c9 04 20 04 80 	movabs $0x80042004c9,%r8
  8004202d2b:	00 00 00 
  8004202d2e:	41 ff d0             	callq  *%r8
  8004202d31:	48 ba 00 00 00 04 80 	movabs $0x8004000000,%rdx
  8004202d38:	00 00 00 
  8004202d3b:	48 8b 45 c8          	mov    -0x38(%rbp),%rax
  8004202d3f:	48 01 d0             	add    %rdx,%rax
  8004202d42:	48 3b 45 d0          	cmp    -0x30(%rbp),%rax
  8004202d46:	0f 87 84 00 00 00    	ja     8004202dd0 <page_init+0x1e5>
  8004202d4c:	48 b8 00 20 10 00 00 	movabs $0x102000,%rax
  8004202d53:	00 00 00 
  8004202d56:	48 05 00 50 00 00    	add    $0x5000,%rax
  8004202d5c:	48 89 45 b8          	mov    %rax,-0x48(%rbp)
  8004202d60:	48 8b 45 b8          	mov    -0x48(%rbp),%rax
  8004202d64:	48 c1 e8 0c          	shr    $0xc,%rax
  8004202d68:	89 45 b4             	mov    %eax,-0x4c(%rbp)
  8004202d6b:	8b 55 b4             	mov    -0x4c(%rbp),%edx
  8004202d6e:	48 b8 f8 d5 6d 04 80 	movabs $0x80046dd5f8,%rax
  8004202d75:	00 00 00 
  8004202d78:	48 8b 00             	mov    (%rax),%rax
  8004202d7b:	48 39 c2             	cmp    %rax,%rdx
  8004202d7e:	72 32                	jb     8004202db2 <page_init+0x1c7>
  8004202d80:	48 8b 45 b8          	mov    -0x48(%rbp),%rax
  8004202d84:	48 89 c1             	mov    %rax,%rcx
  8004202d87:	48 ba 78 e1 21 04 80 	movabs $0x800421e178,%rdx
  8004202d8e:	00 00 00 
  8004202d91:	be d9 01 00 00       	mov    $0x1d9,%esi
  8004202d96:	48 bf 06 e2 21 04 80 	movabs $0x800421e206,%rdi
  8004202d9d:	00 00 00 
  8004202da0:	b8 00 00 00 00       	mov    $0x0,%eax
  8004202da5:	49 b8 c9 04 20 04 80 	movabs $0x80042004c9,%r8
  8004202dac:	00 00 00 
  8004202daf:	41 ff d0             	callq  *%r8
  8004202db2:	48 ba 00 00 00 04 80 	movabs $0x8004000000,%rdx
  8004202db9:	00 00 00 
  8004202dbc:	48 8b 45 b8          	mov    -0x48(%rbp),%rax
  8004202dc0:	48 01 d0             	add    %rdx,%rax
  8004202dc3:	48 3b 45 d0          	cmp    -0x30(%rbp),%rax
  8004202dc7:	76 07                	jbe    8004202dd0 <page_init+0x1e5>
  8004202dc9:	c7 45 f4 01 00 00 00 	movl   $0x1,-0xc(%rbp)
  8004202dd0:	48 b8 00 d6 6d 04 80 	movabs $0x80046dd600,%rax
  8004202dd7:	00 00 00 
  8004202dda:	48 8b 00             	mov    (%rax),%rax
  8004202ddd:	48 8b 55 f8          	mov    -0x8(%rbp),%rdx
  8004202de1:	48 c1 e2 04          	shl    $0x4,%rdx
  8004202de5:	48 01 c2             	add    %rax,%rdx
  8004202de8:	8b 45 f4             	mov    -0xc(%rbp),%eax
  8004202deb:	66 89 42 08          	mov    %ax,0x8(%rdx)
  8004202def:	48 b8 00 d6 6d 04 80 	movabs $0x80046dd600,%rax
  8004202df6:	00 00 00 
  8004202df9:	48 8b 00             	mov    (%rax),%rax
  8004202dfc:	48 8b 55 f8          	mov    -0x8(%rbp),%rdx
  8004202e00:	48 c1 e2 04          	shl    $0x4,%rdx
  8004202e04:	48 01 d0             	add    %rdx,%rax
  8004202e07:	48 c7 00 00 00 00 00 	movq   $0x0,(%rax)
  8004202e0e:	83 7d f4 00          	cmpl   $0x0,-0xc(%rbp)
  8004202e12:	75 69                	jne    8004202e7d <page_init+0x292>
  8004202e14:	48 83 7d e8 00       	cmpq   $0x0,-0x18(%rbp)
  8004202e19:	74 21                	je     8004202e3c <page_init+0x251>
  8004202e1b:	48 b8 00 d6 6d 04 80 	movabs $0x80046dd600,%rax
  8004202e22:	00 00 00 
  8004202e25:	48 8b 00             	mov    (%rax),%rax
  8004202e28:	48 8b 55 f8          	mov    -0x8(%rbp),%rdx
  8004202e2c:	48 c1 e2 04          	shl    $0x4,%rdx
  8004202e30:	48 01 c2             	add    %rax,%rdx
  8004202e33:	48 8b 45 e8          	mov    -0x18(%rbp),%rax
  8004202e37:	48 89 10             	mov    %rdx,(%rax)
  8004202e3a:	eb 25                	jmp    8004202e61 <page_init+0x276>
  8004202e3c:	48 b8 00 d6 6d 04 80 	movabs $0x80046dd600,%rax
  8004202e43:	00 00 00 
  8004202e46:	48 8b 00             	mov    (%rax),%rax
  8004202e49:	48 8b 55 f8          	mov    -0x8(%rbp),%rdx
  8004202e4d:	48 c1 e2 04          	shl    $0x4,%rdx
  8004202e51:	48 01 c2             	add    %rax,%rdx
  8004202e54:	48 b8 38 e2 4d 04 80 	movabs $0x80044de238,%rax
  8004202e5b:	00 00 00 
  8004202e5e:	48 89 10             	mov    %rdx,(%rax)
  8004202e61:	48 b8 00 d6 6d 04 80 	movabs $0x80046dd600,%rax
  8004202e68:	00 00 00 
  8004202e6b:	48 8b 00             	mov    (%rax),%rax
  8004202e6e:	48 8b 55 f8          	mov    -0x8(%rbp),%rdx
  8004202e72:	48 c1 e2 04          	shl    $0x4,%rdx
  8004202e76:	48 01 d0             	add    %rdx,%rax
  8004202e79:	48 89 45 e8          	mov    %rax,-0x18(%rbp)
  8004202e7d:	48 83 45 f8 01       	addq   $0x1,-0x8(%rbp)
  8004202e82:	48 b8 f8 d5 6d 04 80 	movabs $0x80046dd5f8,%rax
  8004202e89:	00 00 00 
  8004202e8c:	48 8b 00             	mov    (%rax),%rax
  8004202e8f:	48 39 45 f8          	cmp    %rax,-0x8(%rbp)
  8004202e93:	0f 82 84 fd ff ff    	jb     8004202c1d <page_init+0x32>
  8004202e99:	c9                   	leaveq 
  8004202e9a:	c3                   	retq   

0000008004202e9b <page_alloc>:
  8004202e9b:	55                   	push   %rbp
  8004202e9c:	48 89 e5             	mov    %rsp,%rbp
  8004202e9f:	48 83 ec 20          	sub    $0x20,%rsp
  8004202ea3:	89 7d ec             	mov    %edi,-0x14(%rbp)
  8004202ea6:	48 b8 38 e2 4d 04 80 	movabs $0x80044de238,%rax
  8004202ead:	00 00 00 
  8004202eb0:	48 8b 00             	mov    (%rax),%rax
  8004202eb3:	48 89 45 f8          	mov    %rax,-0x8(%rbp)
  8004202eb7:	48 83 7d f8 00       	cmpq   $0x0,-0x8(%rbp)
  8004202ebc:	74 5e                	je     8004202f1c <page_alloc+0x81>
  8004202ebe:	48 b8 38 e2 4d 04 80 	movabs $0x80044de238,%rax
  8004202ec5:	00 00 00 
  8004202ec8:	48 8b 00             	mov    (%rax),%rax
  8004202ecb:	48 8b 10             	mov    (%rax),%rdx
  8004202ece:	48 b8 38 e2 4d 04 80 	movabs $0x80044de238,%rax
  8004202ed5:	00 00 00 
  8004202ed8:	48 89 10             	mov    %rdx,(%rax)
  8004202edb:	48 8b 45 f8          	mov    -0x8(%rbp),%rax
  8004202edf:	48 c7 00 00 00 00 00 	movq   $0x0,(%rax)
  8004202ee6:	8b 45 ec             	mov    -0x14(%rbp),%eax
  8004202ee9:	83 e0 01             	and    $0x1,%eax
  8004202eec:	85 c0                	test   %eax,%eax
  8004202eee:	74 2c                	je     8004202f1c <page_alloc+0x81>
  8004202ef0:	48 8b 45 f8          	mov    -0x8(%rbp),%rax
  8004202ef4:	48 89 c7             	mov    %rax,%rdi
  8004202ef7:	48 b8 b1 1b 20 04 80 	movabs $0x8004201bb1,%rax
  8004202efe:	00 00 00 
  8004202f01:	ff d0                	callq  *%rax
  8004202f03:	ba 00 10 00 00       	mov    $0x1000,%edx
  8004202f08:	be 00 00 00 00       	mov    $0x0,%esi
  8004202f0d:	48 89 c7             	mov    %rax,%rdi
  8004202f10:	48 b8 ab 0b 21 04 80 	movabs $0x8004210bab,%rax
  8004202f17:	00 00 00 
  8004202f1a:	ff d0                	callq  *%rax
  8004202f1c:	48 8b 45 f8          	mov    -0x8(%rbp),%rax
  8004202f20:	c9                   	leaveq 
  8004202f21:	c3                   	retq   

0000008004202f22 <page_initpp>:
  8004202f22:	55                   	push   %rbp
  8004202f23:	48 89 e5             	mov    %rsp,%rbp
  8004202f26:	48 83 ec 10          	sub    $0x10,%rsp
  8004202f2a:	48 89 7d f8          	mov    %rdi,-0x8(%rbp)
  8004202f2e:	48 8b 45 f8          	mov    -0x8(%rbp),%rax
  8004202f32:	ba 10 00 00 00       	mov    $0x10,%edx
  8004202f37:	be 00 00 00 00       	mov    $0x0,%esi
  8004202f3c:	48 89 c7             	mov    %rax,%rdi
  8004202f3f:	48 b8 ab 0b 21 04 80 	movabs $0x8004210bab,%rax
  8004202f46:	00 00 00 
  8004202f49:	ff d0                	callq  *%rax
  8004202f4b:	c9                   	leaveq 
  8004202f4c:	c3                   	retq   

0000008004202f4d <page_free>:
  8004202f4d:	55                   	push   %rbp
  8004202f4e:	48 89 e5             	mov    %rsp,%rbp
  8004202f51:	48 83 ec 10          	sub    $0x10,%rsp
  8004202f55:	48 89 7d f8          	mov    %rdi,-0x8(%rbp)
  8004202f59:	48 8b 45 f8          	mov    -0x8(%rbp),%rax
  8004202f5d:	0f b7 40 08          	movzwl 0x8(%rax),%eax
  8004202f61:	66 85 c0             	test   %ax,%ax
  8004202f64:	75 0c                	jne    8004202f72 <page_free+0x25>
  8004202f66:	48 8b 45 f8          	mov    -0x8(%rbp),%rax
  8004202f6a:	48 8b 00             	mov    (%rax),%rax
  8004202f6d:	48 85 c0             	test   %rax,%rax
  8004202f70:	74 2c                	je     8004202f9e <page_free+0x51>
  8004202f72:	48 ba 50 e3 21 04 80 	movabs $0x800421e350,%rdx
  8004202f79:	00 00 00 
  8004202f7c:	be 3d 02 00 00       	mov    $0x23d,%esi
  8004202f81:	48 bf 06 e2 21 04 80 	movabs $0x800421e206,%rdi
  8004202f88:	00 00 00 
  8004202f8b:	b8 00 00 00 00       	mov    $0x0,%eax
  8004202f90:	48 b9 00 06 20 04 80 	movabs $0x8004200600,%rcx
  8004202f97:	00 00 00 
  8004202f9a:	ff d1                	callq  *%rcx
  8004202f9c:	eb 2f                	jmp    8004202fcd <page_free+0x80>
  8004202f9e:	48 b8 38 e2 4d 04 80 	movabs $0x80044de238,%rax
  8004202fa5:	00 00 00 
  8004202fa8:	48 8b 10             	mov    (%rax),%rdx
  8004202fab:	48 8b 45 f8          	mov    -0x8(%rbp),%rax
  8004202faf:	48 89 10             	mov    %rdx,(%rax)
  8004202fb2:	48 b8 38 e2 4d 04 80 	movabs $0x80044de238,%rax
  8004202fb9:	00 00 00 
  8004202fbc:	48 8b 55 f8          	mov    -0x8(%rbp),%rdx
  8004202fc0:	48 89 10             	mov    %rdx,(%rax)
  8004202fc3:	48 8b 45 f8          	mov    -0x8(%rbp),%rax
  8004202fc7:	66 c7 40 08 00 00    	movw   $0x0,0x8(%rax)
  8004202fcd:	c9                   	leaveq 
  8004202fce:	c3                   	retq   

0000008004202fcf <page_decref>:
  8004202fcf:	55                   	push   %rbp
  8004202fd0:	48 89 e5             	mov    %rsp,%rbp
  8004202fd3:	48 83 ec 10          	sub    $0x10,%rsp
  8004202fd7:	48 89 7d f8          	mov    %rdi,-0x8(%rbp)
  8004202fdb:	48 8b 45 f8          	mov    -0x8(%rbp),%rax
  8004202fdf:	0f b7 40 08          	movzwl 0x8(%rax),%eax
  8004202fe3:	8d 50 ff             	lea    -0x1(%rax),%edx
  8004202fe6:	48 8b 45 f8          	mov    -0x8(%rbp),%rax
  8004202fea:	66 89 50 08          	mov    %dx,0x8(%rax)
  8004202fee:	48 8b 45 f8          	mov    -0x8(%rbp),%rax
  8004202ff2:	0f b7 40 08          	movzwl 0x8(%rax),%eax
  8004202ff6:	66 85 c0             	test   %ax,%ax
  8004202ff9:	75 13                	jne    800420300e <page_decref+0x3f>
  8004202ffb:	48 8b 45 f8          	mov    -0x8(%rbp),%rax
  8004202fff:	48 89 c7             	mov    %rax,%rdi
  8004203002:	48 b8 4d 2f 20 04 80 	movabs $0x8004202f4d,%rax
  8004203009:	00 00 00 
  800420300c:	ff d0                	callq  *%rax
  800420300e:	c9                   	leaveq 
  800420300f:	c3                   	retq   

0000008004203010 <pml4e_walk>:
  8004203010:	55                   	push   %rbp
  8004203011:	48 89 e5             	mov    %rsp,%rbp
  8004203014:	53                   	push   %rbx
  8004203015:	48 83 ec 68          	sub    $0x68,%rsp
  8004203019:	48 89 7d a8          	mov    %rdi,-0x58(%rbp)
  800420301d:	48 89 75 a0          	mov    %rsi,-0x60(%rbp)
  8004203021:	89 55 9c             	mov    %edx,-0x64(%rbp)
  8004203024:	48 83 7d a8 00       	cmpq   $0x0,-0x58(%rbp)
  8004203029:	0f 84 4e 02 00 00    	je     800420327d <pml4e_walk+0x26d>
  800420302f:	48 8b 45 a0          	mov    -0x60(%rbp),%rax
  8004203033:	48 c1 e8 27          	shr    $0x27,%rax
  8004203037:	25 ff 01 00 00       	and    $0x1ff,%eax
  800420303c:	48 8d 14 c5 00 00 00 	lea    0x0(,%rax,8),%rdx
  8004203043:	00 
  8004203044:	48 8b 45 a8          	mov    -0x58(%rbp),%rax
  8004203048:	48 01 d0             	add    %rdx,%rax
  800420304b:	48 8b 00             	mov    (%rax),%rax
  800420304e:	48 89 45 e8          	mov    %rax,-0x18(%rbp)
  8004203052:	48 8b 45 e8          	mov    -0x18(%rbp),%rax
  8004203056:	83 e0 01             	and    $0x1,%eax
  8004203059:	48 85 c0             	test   %rax,%rax
  800420305c:	0f 85 7f 01 00 00    	jne    80042031e1 <pml4e_walk+0x1d1>
  8004203062:	83 7d 9c 00          	cmpl   $0x0,-0x64(%rbp)
  8004203066:	0f 84 75 01 00 00    	je     80042031e1 <pml4e_walk+0x1d1>
  800420306c:	48 c7 45 e0 00 00 00 	movq   $0x0,-0x20(%rbp)
  8004203073:	00 
  8004203074:	bf 01 00 00 00       	mov    $0x1,%edi
  8004203079:	48 b8 9b 2e 20 04 80 	movabs $0x8004202e9b,%rax
  8004203080:	00 00 00 
  8004203083:	ff d0                	callq  *%rax
  8004203085:	48 89 45 e0          	mov    %rax,-0x20(%rbp)
  8004203089:	48 83 7d e0 00       	cmpq   $0x0,-0x20(%rbp)
  800420308e:	0f 84 43 01 00 00    	je     80042031d7 <pml4e_walk+0x1c7>
  8004203094:	48 8b 45 e0          	mov    -0x20(%rbp),%rax
  8004203098:	0f b7 40 08          	movzwl 0x8(%rax),%eax
  800420309c:	8d 50 01             	lea    0x1(%rax),%edx
  800420309f:	48 8b 45 e0          	mov    -0x20(%rbp),%rax
  80042030a3:	66 89 50 08          	mov    %dx,0x8(%rax)
  80042030a7:	48 8b 45 a0          	mov    -0x60(%rbp),%rax
  80042030ab:	48 c1 e8 27          	shr    $0x27,%rax
  80042030af:	25 ff 01 00 00       	and    $0x1ff,%eax
  80042030b4:	48 8d 14 c5 00 00 00 	lea    0x0(,%rax,8),%rdx
  80042030bb:	00 
  80042030bc:	48 8b 45 a8          	mov    -0x58(%rbp),%rax
  80042030c0:	48 8d 1c 02          	lea    (%rdx,%rax,1),%rbx
  80042030c4:	48 8b 45 e0          	mov    -0x20(%rbp),%rax
  80042030c8:	48 89 c7             	mov    %rax,%rdi
  80042030cb:	48 b8 1b 1b 20 04 80 	movabs $0x8004201b1b,%rax
  80042030d2:	00 00 00 
  80042030d5:	ff d0                	callq  *%rax
  80042030d7:	48 83 c8 07          	or     $0x7,%rax
  80042030db:	48 89 03             	mov    %rax,(%rbx)
  80042030de:	48 8b 45 a0          	mov    -0x60(%rbp),%rax
  80042030e2:	48 c1 e8 27          	shr    $0x27,%rax
  80042030e6:	25 ff 01 00 00       	and    $0x1ff,%eax
  80042030eb:	48 8d 14 c5 00 00 00 	lea    0x0(,%rax,8),%rdx
  80042030f2:	00 
  80042030f3:	48 8b 45 a8          	mov    -0x58(%rbp),%rax
  80042030f7:	48 01 d0             	add    %rdx,%rax
  80042030fa:	48 8b 00             	mov    (%rax),%rax
  80042030fd:	48 25 00 f0 ff ff    	and    $0xfffffffffffff000,%rax
  8004203103:	48 89 45 d8          	mov    %rax,-0x28(%rbp)
  8004203107:	48 8b 45 d8          	mov    -0x28(%rbp),%rax
  800420310b:	48 c1 e8 0c          	shr    $0xc,%rax
  800420310f:	89 45 d4             	mov    %eax,-0x2c(%rbp)
  8004203112:	8b 55 d4             	mov    -0x2c(%rbp),%edx
  8004203115:	48 b8 f8 d5 6d 04 80 	movabs $0x80046dd5f8,%rax
  800420311c:	00 00 00 
  800420311f:	48 8b 00             	mov    (%rax),%rax
  8004203122:	48 39 c2             	cmp    %rax,%rdx
  8004203125:	72 32                	jb     8004203159 <pml4e_walk+0x149>
  8004203127:	48 8b 45 d8          	mov    -0x28(%rbp),%rax
  800420312b:	48 89 c1             	mov    %rax,%rcx
  800420312e:	48 ba 78 e1 21 04 80 	movabs $0x800421e178,%rdx
  8004203135:	00 00 00 
  8004203138:	be 79 02 00 00       	mov    $0x279,%esi
  800420313d:	48 bf 06 e2 21 04 80 	movabs $0x800421e206,%rdi
  8004203144:	00 00 00 
  8004203147:	b8 00 00 00 00       	mov    $0x0,%eax
  800420314c:	49 b8 c9 04 20 04 80 	movabs $0x80042004c9,%r8
  8004203153:	00 00 00 
  8004203156:	41 ff d0             	callq  *%r8
  8004203159:	48 ba 00 00 00 04 80 	movabs $0x8004000000,%rdx
  8004203160:	00 00 00 
  8004203163:	48 8b 45 d8          	mov    -0x28(%rbp),%rax
  8004203167:	48 01 d0             	add    %rdx,%rax
  800420316a:	8b 55 9c             	mov    -0x64(%rbp),%edx
  800420316d:	48 8b 4d a0          	mov    -0x60(%rbp),%rcx
  8004203171:	48 89 ce             	mov    %rcx,%rsi
  8004203174:	48 89 c7             	mov    %rax,%rdi
  8004203177:	48 b8 89 32 20 04 80 	movabs $0x8004203289,%rax
  800420317e:	00 00 00 
  8004203181:	ff d0                	callq  *%rax
  8004203183:	48 89 45 c8          	mov    %rax,-0x38(%rbp)
  8004203187:	48 83 7d c8 00       	cmpq   $0x0,-0x38(%rbp)
  800420318c:	74 09                	je     8004203197 <pml4e_walk+0x187>
  800420318e:	48 8b 45 c8          	mov    -0x38(%rbp),%rax
  8004203192:	e9 eb 00 00 00       	jmpq   8004203282 <pml4e_walk+0x272>
  8004203197:	48 8b 45 a0          	mov    -0x60(%rbp),%rax
  800420319b:	48 c1 e8 27          	shr    $0x27,%rax
  800420319f:	25 ff 01 00 00       	and    $0x1ff,%eax
  80042031a4:	48 8d 14 c5 00 00 00 	lea    0x0(,%rax,8),%rdx
  80042031ab:	00 
  80042031ac:	48 8b 45 a8          	mov    -0x58(%rbp),%rax
  80042031b0:	48 01 d0             	add    %rdx,%rax
  80042031b3:	48 c7 00 00 00 00 00 	movq   $0x0,(%rax)
  80042031ba:	48 8b 45 e0          	mov    -0x20(%rbp),%rax
  80042031be:	48 89 c7             	mov    %rax,%rdi
  80042031c1:	48 b8 cf 2f 20 04 80 	movabs $0x8004202fcf,%rax
  80042031c8:	00 00 00 
  80042031cb:	ff d0                	callq  *%rax
  80042031cd:	b8 00 00 00 00       	mov    $0x0,%eax
  80042031d2:	e9 ab 00 00 00       	jmpq   8004203282 <pml4e_walk+0x272>
  80042031d7:	b8 00 00 00 00       	mov    $0x0,%eax
  80042031dc:	e9 a1 00 00 00       	jmpq   8004203282 <pml4e_walk+0x272>
  80042031e1:	48 8b 45 e8          	mov    -0x18(%rbp),%rax
  80042031e5:	83 e0 01             	and    $0x1,%eax
  80042031e8:	48 85 c0             	test   %rax,%rax
  80042031eb:	0f 84 8c 00 00 00    	je     800420327d <pml4e_walk+0x26d>
  80042031f1:	48 8b 45 e8          	mov    -0x18(%rbp),%rax
  80042031f5:	48 25 00 f0 ff ff    	and    $0xfffffffffffff000,%rax
  80042031fb:	48 89 45 c0          	mov    %rax,-0x40(%rbp)
  80042031ff:	48 8b 45 c0          	mov    -0x40(%rbp),%rax
  8004203203:	48 c1 e8 0c          	shr    $0xc,%rax
  8004203207:	89 45 bc             	mov    %eax,-0x44(%rbp)
  800420320a:	8b 55 bc             	mov    -0x44(%rbp),%edx
  800420320d:	48 b8 f8 d5 6d 04 80 	movabs $0x80046dd5f8,%rax
  8004203214:	00 00 00 
  8004203217:	48 8b 00             	mov    (%rax),%rax
  800420321a:	48 39 c2             	cmp    %rax,%rdx
  800420321d:	72 32                	jb     8004203251 <pml4e_walk+0x241>
  800420321f:	48 8b 45 c0          	mov    -0x40(%rbp),%rax
  8004203223:	48 89 c1             	mov    %rax,%rcx
  8004203226:	48 ba 78 e1 21 04 80 	movabs $0x800421e178,%rdx
  800420322d:	00 00 00 
  8004203230:	be 83 02 00 00       	mov    $0x283,%esi
  8004203235:	48 bf 06 e2 21 04 80 	movabs $0x800421e206,%rdi
  800420323c:	00 00 00 
  800420323f:	b8 00 00 00 00       	mov    $0x0,%eax
  8004203244:	49 b8 c9 04 20 04 80 	movabs $0x80042004c9,%r8
  800420324b:	00 00 00 
  800420324e:	41 ff d0             	callq  *%r8
  8004203251:	48 ba 00 00 00 04 80 	movabs $0x8004000000,%rdx
  8004203258:	00 00 00 
  800420325b:	48 8b 45 c0          	mov    -0x40(%rbp),%rax
  800420325f:	48 01 d0             	add    %rdx,%rax
  8004203262:	8b 55 9c             	mov    -0x64(%rbp),%edx
  8004203265:	48 8b 4d a0          	mov    -0x60(%rbp),%rcx
  8004203269:	48 89 ce             	mov    %rcx,%rsi
  800420326c:	48 89 c7             	mov    %rax,%rdi
  800420326f:	48 b8 89 32 20 04 80 	movabs $0x8004203289,%rax
  8004203276:	00 00 00 
  8004203279:	ff d0                	callq  *%rax
  800420327b:	eb 05                	jmp    8004203282 <pml4e_walk+0x272>
  800420327d:	b8 00 00 00 00       	mov    $0x0,%eax
  8004203282:	48 83 c4 68          	add    $0x68,%rsp
  8004203286:	5b                   	pop    %rbx
  8004203287:	5d                   	pop    %rbp
  8004203288:	c3                   	retq   

0000008004203289 <pdpe_walk>:
  8004203289:	55                   	push   %rbp
  800420328a:	48 89 e5             	mov    %rsp,%rbp
  800420328d:	53                   	push   %rbx
  800420328e:	48 83 ec 68          	sub    $0x68,%rsp
  8004203292:	48 89 7d a8          	mov    %rdi,-0x58(%rbp)
  8004203296:	48 89 75 a0          	mov    %rsi,-0x60(%rbp)
  800420329a:	89 55 9c             	mov    %edx,-0x64(%rbp)
  800420329d:	48 83 7d a8 00       	cmpq   $0x0,-0x58(%rbp)
  80042032a2:	0f 84 4e 02 00 00    	je     80042034f6 <pdpe_walk+0x26d>
  80042032a8:	48 8b 45 a0          	mov    -0x60(%rbp),%rax
  80042032ac:	48 c1 e8 1e          	shr    $0x1e,%rax
  80042032b0:	25 ff 01 00 00       	and    $0x1ff,%eax
  80042032b5:	48 8d 14 c5 00 00 00 	lea    0x0(,%rax,8),%rdx
  80042032bc:	00 
  80042032bd:	48 8b 45 a8          	mov    -0x58(%rbp),%rax
  80042032c1:	48 01 d0             	add    %rdx,%rax
  80042032c4:	48 8b 00             	mov    (%rax),%rax
  80042032c7:	48 89 45 e8          	mov    %rax,-0x18(%rbp)
  80042032cb:	48 8b 45 e8          	mov    -0x18(%rbp),%rax
  80042032cf:	83 e0 01             	and    $0x1,%eax
  80042032d2:	48 85 c0             	test   %rax,%rax
  80042032d5:	0f 85 7f 01 00 00    	jne    800420345a <pdpe_walk+0x1d1>
  80042032db:	83 7d 9c 00          	cmpl   $0x0,-0x64(%rbp)
  80042032df:	0f 84 75 01 00 00    	je     800420345a <pdpe_walk+0x1d1>
  80042032e5:	48 c7 45 e0 00 00 00 	movq   $0x0,-0x20(%rbp)
  80042032ec:	00 
  80042032ed:	bf 01 00 00 00       	mov    $0x1,%edi
  80042032f2:	48 b8 9b 2e 20 04 80 	movabs $0x8004202e9b,%rax
  80042032f9:	00 00 00 
  80042032fc:	ff d0                	callq  *%rax
  80042032fe:	48 89 45 e0          	mov    %rax,-0x20(%rbp)
  8004203302:	48 83 7d e0 00       	cmpq   $0x0,-0x20(%rbp)
  8004203307:	0f 84 43 01 00 00    	je     8004203450 <pdpe_walk+0x1c7>
  800420330d:	48 8b 45 e0          	mov    -0x20(%rbp),%rax
  8004203311:	0f b7 40 08          	movzwl 0x8(%rax),%eax
  8004203315:	8d 50 01             	lea    0x1(%rax),%edx
  8004203318:	48 8b 45 e0          	mov    -0x20(%rbp),%rax
  800420331c:	66 89 50 08          	mov    %dx,0x8(%rax)
  8004203320:	48 8b 45 a0          	mov    -0x60(%rbp),%rax
  8004203324:	48 c1 e8 1e          	shr    $0x1e,%rax
  8004203328:	25 ff 01 00 00       	and    $0x1ff,%eax
  800420332d:	48 8d 14 c5 00 00 00 	lea    0x0(,%rax,8),%rdx
  8004203334:	00 
  8004203335:	48 8b 45 a8          	mov    -0x58(%rbp),%rax
  8004203339:	48 8d 1c 02          	lea    (%rdx,%rax,1),%rbx
  800420333d:	48 8b 45 e0          	mov    -0x20(%rbp),%rax
  8004203341:	48 89 c7             	mov    %rax,%rdi
  8004203344:	48 b8 1b 1b 20 04 80 	movabs $0x8004201b1b,%rax
  800420334b:	00 00 00 
  800420334e:	ff d0                	callq  *%rax
  8004203350:	48 83 c8 07          	or     $0x7,%rax
  8004203354:	48 89 03             	mov    %rax,(%rbx)
  8004203357:	48 8b 45 a0          	mov    -0x60(%rbp),%rax
  800420335b:	48 c1 e8 1e          	shr    $0x1e,%rax
  800420335f:	25 ff 01 00 00       	and    $0x1ff,%eax
  8004203364:	48 8d 14 c5 00 00 00 	lea    0x0(,%rax,8),%rdx
  800420336b:	00 
  800420336c:	48 8b 45 a8          	mov    -0x58(%rbp),%rax
  8004203370:	48 01 d0             	add    %rdx,%rax
  8004203373:	48 8b 00             	mov    (%rax),%rax
  8004203376:	48 25 00 f0 ff ff    	and    $0xfffffffffffff000,%rax
  800420337c:	48 89 45 d8          	mov    %rax,-0x28(%rbp)
  8004203380:	48 8b 45 d8          	mov    -0x28(%rbp),%rax
  8004203384:	48 c1 e8 0c          	shr    $0xc,%rax
  8004203388:	89 45 d4             	mov    %eax,-0x2c(%rbp)
  800420338b:	8b 55 d4             	mov    -0x2c(%rbp),%edx
  800420338e:	48 b8 f8 d5 6d 04 80 	movabs $0x80046dd5f8,%rax
  8004203395:	00 00 00 
  8004203398:	48 8b 00             	mov    (%rax),%rax
  800420339b:	48 39 c2             	cmp    %rax,%rdx
  800420339e:	72 32                	jb     80042033d2 <pdpe_walk+0x149>
  80042033a0:	48 8b 45 d8          	mov    -0x28(%rbp),%rax
  80042033a4:	48 89 c1             	mov    %rax,%rcx
  80042033a7:	48 ba 78 e1 21 04 80 	movabs $0x800421e178,%rdx
  80042033ae:	00 00 00 
  80042033b1:	be 9c 02 00 00       	mov    $0x29c,%esi
  80042033b6:	48 bf 06 e2 21 04 80 	movabs $0x800421e206,%rdi
  80042033bd:	00 00 00 
  80042033c0:	b8 00 00 00 00       	mov    $0x0,%eax
  80042033c5:	49 b8 c9 04 20 04 80 	movabs $0x80042004c9,%r8
  80042033cc:	00 00 00 
  80042033cf:	41 ff d0             	callq  *%r8
  80042033d2:	48 ba 00 00 00 04 80 	movabs $0x8004000000,%rdx
  80042033d9:	00 00 00 
  80042033dc:	48 8b 45 d8          	mov    -0x28(%rbp),%rax
  80042033e0:	48 01 d0             	add    %rdx,%rax
  80042033e3:	8b 55 9c             	mov    -0x64(%rbp),%edx
  80042033e6:	48 8b 4d a0          	mov    -0x60(%rbp),%rcx
  80042033ea:	48 89 ce             	mov    %rcx,%rsi
  80042033ed:	48 89 c7             	mov    %rax,%rdi
  80042033f0:	48 b8 02 35 20 04 80 	movabs $0x8004203502,%rax
  80042033f7:	00 00 00 
  80042033fa:	ff d0                	callq  *%rax
  80042033fc:	48 89 45 c8          	mov    %rax,-0x38(%rbp)
  8004203400:	48 83 7d c8 00       	cmpq   $0x0,-0x38(%rbp)
  8004203405:	74 09                	je     8004203410 <pdpe_walk+0x187>
  8004203407:	48 8b 45 c8          	mov    -0x38(%rbp),%rax
  800420340b:	e9 eb 00 00 00       	jmpq   80042034fb <pdpe_walk+0x272>
  8004203410:	48 8b 45 a0          	mov    -0x60(%rbp),%rax
  8004203414:	48 c1 e8 1e          	shr    $0x1e,%rax
  8004203418:	25 ff 01 00 00       	and    $0x1ff,%eax
  800420341d:	48 8d 14 c5 00 00 00 	lea    0x0(,%rax,8),%rdx
  8004203424:	00 
  8004203425:	48 8b 45 a8          	mov    -0x58(%rbp),%rax
  8004203429:	48 01 d0             	add    %rdx,%rax
  800420342c:	48 c7 00 00 00 00 00 	movq   $0x0,(%rax)
  8004203433:	48 8b 45 e0          	mov    -0x20(%rbp),%rax
  8004203437:	48 89 c7             	mov    %rax,%rdi
  800420343a:	48 b8 cf 2f 20 04 80 	movabs $0x8004202fcf,%rax
  8004203441:	00 00 00 
  8004203444:	ff d0                	callq  *%rax
  8004203446:	b8 00 00 00 00       	mov    $0x0,%eax
  800420344b:	e9 ab 00 00 00       	jmpq   80042034fb <pdpe_walk+0x272>
  8004203450:	b8 00 00 00 00       	mov    $0x0,%eax
  8004203455:	e9 a1 00 00 00       	jmpq   80042034fb <pdpe_walk+0x272>
  800420345a:	48 8b 45 e8          	mov    -0x18(%rbp),%rax
  800420345e:	83 e0 01             	and    $0x1,%eax
  8004203461:	48 85 c0             	test   %rax,%rax
  8004203464:	0f 84 8c 00 00 00    	je     80042034f6 <pdpe_walk+0x26d>
  800420346a:	48 8b 45 e8          	mov    -0x18(%rbp),%rax
  800420346e:	48 25 00 f0 ff ff    	and    $0xfffffffffffff000,%rax
  8004203474:	48 89 45 c0          	mov    %rax,-0x40(%rbp)
  8004203478:	48 8b 45 c0          	mov    -0x40(%rbp),%rax
  800420347c:	48 c1 e8 0c          	shr    $0xc,%rax
  8004203480:	89 45 bc             	mov    %eax,-0x44(%rbp)
  8004203483:	8b 55 bc             	mov    -0x44(%rbp),%edx
  8004203486:	48 b8 f8 d5 6d 04 80 	movabs $0x80046dd5f8,%rax
  800420348d:	00 00 00 
  8004203490:	48 8b 00             	mov    (%rax),%rax
  8004203493:	48 39 c2             	cmp    %rax,%rdx
  8004203496:	72 32                	jb     80042034ca <pdpe_walk+0x241>
  8004203498:	48 8b 45 c0          	mov    -0x40(%rbp),%rax
  800420349c:	48 89 c1             	mov    %rax,%rcx
  800420349f:	48 ba 78 e1 21 04 80 	movabs $0x800421e178,%rdx
  80042034a6:	00 00 00 
  80042034a9:	be a6 02 00 00       	mov    $0x2a6,%esi
  80042034ae:	48 bf 06 e2 21 04 80 	movabs $0x800421e206,%rdi
  80042034b5:	00 00 00 
  80042034b8:	b8 00 00 00 00       	mov    $0x0,%eax
  80042034bd:	49 b8 c9 04 20 04 80 	movabs $0x80042004c9,%r8
  80042034c4:	00 00 00 
  80042034c7:	41 ff d0             	callq  *%r8
  80042034ca:	48 ba 00 00 00 04 80 	movabs $0x8004000000,%rdx
  80042034d1:	00 00 00 
  80042034d4:	48 8b 45 c0          	mov    -0x40(%rbp),%rax
  80042034d8:	48 01 d0             	add    %rdx,%rax
  80042034db:	8b 55 9c             	mov    -0x64(%rbp),%edx
  80042034de:	48 8b 4d a0          	mov    -0x60(%rbp),%rcx
  80042034e2:	48 89 ce             	mov    %rcx,%rsi
  80042034e5:	48 89 c7             	mov    %rax,%rdi
  80042034e8:	48 b8 02 35 20 04 80 	movabs $0x8004203502,%rax
  80042034ef:	00 00 00 
  80042034f2:	ff d0                	callq  *%rax
  80042034f4:	eb 05                	jmp    80042034fb <pdpe_walk+0x272>
  80042034f6:	b8 00 00 00 00       	mov    $0x0,%eax
  80042034fb:	48 83 c4 68          	add    $0x68,%rsp
  80042034ff:	5b                   	pop    %rbx
  8004203500:	5d                   	pop    %rbp
  8004203501:	c3                   	retq   

0000008004203502 <pgdir_walk>:
  8004203502:	55                   	push   %rbp
  8004203503:	48 89 e5             	mov    %rsp,%rbp
  8004203506:	53                   	push   %rbx
  8004203507:	48 83 ec 58          	sub    $0x58,%rsp
  800420350b:	48 89 7d b8          	mov    %rdi,-0x48(%rbp)
  800420350f:	48 89 75 b0          	mov    %rsi,-0x50(%rbp)
  8004203513:	89 55 ac             	mov    %edx,-0x54(%rbp)
  8004203516:	48 83 7d b8 00       	cmpq   $0x0,-0x48(%rbp)
  800420351b:	0f 84 fd 01 00 00    	je     800420371e <pgdir_walk+0x21c>
  8004203521:	48 8b 45 b0          	mov    -0x50(%rbp),%rax
  8004203525:	48 c1 e8 15          	shr    $0x15,%rax
  8004203529:	25 ff 01 00 00       	and    $0x1ff,%eax
  800420352e:	48 8d 14 c5 00 00 00 	lea    0x0(,%rax,8),%rdx
  8004203535:	00 
  8004203536:	48 8b 45 b8          	mov    -0x48(%rbp),%rax
  800420353a:	48 01 d0             	add    %rdx,%rax
  800420353d:	48 8b 00             	mov    (%rax),%rax
  8004203540:	48 89 45 e8          	mov    %rax,-0x18(%rbp)
  8004203544:	48 8b 45 e8          	mov    -0x18(%rbp),%rax
  8004203548:	83 e0 01             	and    $0x1,%eax
  800420354b:	48 85 c0             	test   %rax,%rax
  800420354e:	0f 85 2f 01 00 00    	jne    8004203683 <pgdir_walk+0x181>
  8004203554:	83 7d ac 00          	cmpl   $0x0,-0x54(%rbp)
  8004203558:	0f 84 25 01 00 00    	je     8004203683 <pgdir_walk+0x181>
  800420355e:	48 c7 45 e0 00 00 00 	movq   $0x0,-0x20(%rbp)
  8004203565:	00 
  8004203566:	bf 01 00 00 00       	mov    $0x1,%edi
  800420356b:	48 b8 9b 2e 20 04 80 	movabs $0x8004202e9b,%rax
  8004203572:	00 00 00 
  8004203575:	ff d0                	callq  *%rax
  8004203577:	48 89 45 e0          	mov    %rax,-0x20(%rbp)
  800420357b:	48 83 7d e0 00       	cmpq   $0x0,-0x20(%rbp)
  8004203580:	0f 84 f3 00 00 00    	je     8004203679 <pgdir_walk+0x177>
  8004203586:	48 8b 45 e0          	mov    -0x20(%rbp),%rax
  800420358a:	0f b7 40 08          	movzwl 0x8(%rax),%eax
  800420358e:	8d 50 01             	lea    0x1(%rax),%edx
  8004203591:	48 8b 45 e0          	mov    -0x20(%rbp),%rax
  8004203595:	66 89 50 08          	mov    %dx,0x8(%rax)
  8004203599:	48 8b 45 b0          	mov    -0x50(%rbp),%rax
  800420359d:	48 c1 e8 15          	shr    $0x15,%rax
  80042035a1:	25 ff 01 00 00       	and    $0x1ff,%eax
  80042035a6:	48 8d 14 c5 00 00 00 	lea    0x0(,%rax,8),%rdx
  80042035ad:	00 
  80042035ae:	48 8b 45 b8          	mov    -0x48(%rbp),%rax
  80042035b2:	48 8d 1c 02          	lea    (%rdx,%rax,1),%rbx
  80042035b6:	48 8b 45 e0          	mov    -0x20(%rbp),%rax
  80042035ba:	48 89 c7             	mov    %rax,%rdi
  80042035bd:	48 b8 1b 1b 20 04 80 	movabs $0x8004201b1b,%rax
  80042035c4:	00 00 00 
  80042035c7:	ff d0                	callq  *%rax
  80042035c9:	48 83 c8 07          	or     $0x7,%rax
  80042035cd:	48 89 03             	mov    %rax,(%rbx)
  80042035d0:	48 8b 45 b0          	mov    -0x50(%rbp),%rax
  80042035d4:	48 c1 e8 0c          	shr    $0xc,%rax
  80042035d8:	25 ff 01 00 00       	and    $0x1ff,%eax
  80042035dd:	48 8d 14 c5 00 00 00 	lea    0x0(,%rax,8),%rdx
  80042035e4:	00 
  80042035e5:	48 8b 45 b0          	mov    -0x50(%rbp),%rax
  80042035e9:	48 c1 e8 15          	shr    $0x15,%rax
  80042035ed:	25 ff 01 00 00       	and    $0x1ff,%eax
  80042035f2:	48 8d 0c c5 00 00 00 	lea    0x0(,%rax,8),%rcx
  80042035f9:	00 
  80042035fa:	48 8b 45 b8          	mov    -0x48(%rbp),%rax
  80042035fe:	48 01 c8             	add    %rcx,%rax
  8004203601:	48 8b 00             	mov    (%rax),%rax
  8004203604:	48 25 00 f0 ff ff    	and    $0xfffffffffffff000,%rax
  800420360a:	48 01 d0             	add    %rdx,%rax
  800420360d:	48 89 45 d8          	mov    %rax,-0x28(%rbp)
  8004203611:	48 8b 45 d8          	mov    -0x28(%rbp),%rax
  8004203615:	48 c1 e8 0c          	shr    $0xc,%rax
  8004203619:	89 45 d4             	mov    %eax,-0x2c(%rbp)
  800420361c:	8b 55 d4             	mov    -0x2c(%rbp),%edx
  800420361f:	48 b8 f8 d5 6d 04 80 	movabs $0x80046dd5f8,%rax
  8004203626:	00 00 00 
  8004203629:	48 8b 00             	mov    (%rax),%rax
  800420362c:	48 39 c2             	cmp    %rax,%rdx
  800420362f:	72 32                	jb     8004203663 <pgdir_walk+0x161>
  8004203631:	48 8b 45 d8          	mov    -0x28(%rbp),%rax
  8004203635:	48 89 c1             	mov    %rax,%rcx
  8004203638:	48 ba 78 e1 21 04 80 	movabs $0x800421e178,%rdx
  800420363f:	00 00 00 
  8004203642:	be be 02 00 00       	mov    $0x2be,%esi
  8004203647:	48 bf 06 e2 21 04 80 	movabs $0x800421e206,%rdi
  800420364e:	00 00 00 
  8004203651:	b8 00 00 00 00       	mov    $0x0,%eax
  8004203656:	49 b8 c9 04 20 04 80 	movabs $0x80042004c9,%r8
  800420365d:	00 00 00 
  8004203660:	41 ff d0             	callq  *%r8
  8004203663:	48 ba 00 00 00 04 80 	movabs $0x8004000000,%rdx
  800420366a:	00 00 00 
  800420366d:	48 8b 45 d8          	mov    -0x28(%rbp),%rax
  8004203671:	48 01 d0             	add    %rdx,%rax
  8004203674:	e9 aa 00 00 00       	jmpq   8004203723 <pgdir_walk+0x221>
  8004203679:	b8 00 00 00 00       	mov    $0x0,%eax
  800420367e:	e9 a0 00 00 00       	jmpq   8004203723 <pgdir_walk+0x221>
  8004203683:	48 8b 45 e8          	mov    -0x18(%rbp),%rax
  8004203687:	83 e0 01             	and    $0x1,%eax
  800420368a:	48 85 c0             	test   %rax,%rax
  800420368d:	0f 84 8b 00 00 00    	je     800420371e <pgdir_walk+0x21c>
  8004203693:	48 8b 45 b0          	mov    -0x50(%rbp),%rax
  8004203697:	48 c1 e8 0c          	shr    $0xc,%rax
  800420369b:	25 ff 01 00 00       	and    $0x1ff,%eax
  80042036a0:	48 8d 14 c5 00 00 00 	lea    0x0(,%rax,8),%rdx
  80042036a7:	00 
  80042036a8:	48 8b 45 e8          	mov    -0x18(%rbp),%rax
  80042036ac:	48 25 00 f0 ff ff    	and    $0xfffffffffffff000,%rax
  80042036b2:	48 01 d0             	add    %rdx,%rax
  80042036b5:	48 89 45 c8          	mov    %rax,-0x38(%rbp)
  80042036b9:	48 8b 45 c8          	mov    -0x38(%rbp),%rax
  80042036bd:	48 c1 e8 0c          	shr    $0xc,%rax
  80042036c1:	89 45 c4             	mov    %eax,-0x3c(%rbp)
  80042036c4:	8b 55 c4             	mov    -0x3c(%rbp),%edx
  80042036c7:	48 b8 f8 d5 6d 04 80 	movabs $0x80046dd5f8,%rax
  80042036ce:	00 00 00 
  80042036d1:	48 8b 00             	mov    (%rax),%rax
  80042036d4:	48 39 c2             	cmp    %rax,%rdx
  80042036d7:	72 32                	jb     800420370b <pgdir_walk+0x209>
  80042036d9:	48 8b 45 c8          	mov    -0x38(%rbp),%rax
  80042036dd:	48 89 c1             	mov    %rax,%rcx
  80042036e0:	48 ba 78 e1 21 04 80 	movabs $0x800421e178,%rdx
  80042036e7:	00 00 00 
  80042036ea:	be c3 02 00 00       	mov    $0x2c3,%esi
  80042036ef:	48 bf 06 e2 21 04 80 	movabs $0x800421e206,%rdi
  80042036f6:	00 00 00 
  80042036f9:	b8 00 00 00 00       	mov    $0x0,%eax
  80042036fe:	49 b8 c9 04 20 04 80 	movabs $0x80042004c9,%r8
  8004203705:	00 00 00 
  8004203708:	41 ff d0             	callq  *%r8
  800420370b:	48 ba 00 00 00 04 80 	movabs $0x8004000000,%rdx
  8004203712:	00 00 00 
  8004203715:	48 8b 45 c8          	mov    -0x38(%rbp),%rax
  8004203719:	48 01 d0             	add    %rdx,%rax
  800420371c:	eb 05                	jmp    8004203723 <pgdir_walk+0x221>
  800420371e:	b8 00 00 00 00       	mov    $0x0,%eax
  8004203723:	48 83 c4 58          	add    $0x58,%rsp
  8004203727:	5b                   	pop    %rbx
  8004203728:	5d                   	pop    %rbp
  8004203729:	c3                   	retq   

000000800420372a <boot_map_region>:
  800420372a:	55                   	push   %rbp
  800420372b:	48 89 e5             	mov    %rsp,%rbp
  800420372e:	48 83 c4 80          	add    $0xffffffffffffff80,%rsp
  8004203732:	48 89 7d a8          	mov    %rdi,-0x58(%rbp)
  8004203736:	48 89 75 a0          	mov    %rsi,-0x60(%rbp)
  800420373a:	48 89 55 98          	mov    %rdx,-0x68(%rbp)
  800420373e:	48 89 4d 90          	mov    %rcx,-0x70(%rbp)
  8004203742:	44 89 45 8c          	mov    %r8d,-0x74(%rbp)
  8004203746:	48 c7 45 f8 00 00 00 	movq   $0x0,-0x8(%rbp)
  800420374d:	00 
  800420374e:	e9 aa 02 00 00       	jmpq   80042039fd <boot_map_region+0x2d3>
  8004203753:	48 8b 45 f8          	mov    -0x8(%rbp),%rax
  8004203757:	48 8b 55 a0          	mov    -0x60(%rbp),%rdx
  800420375b:	48 01 d0             	add    %rdx,%rax
  800420375e:	48 89 c1             	mov    %rax,%rcx
  8004203761:	48 8b 45 a8          	mov    -0x58(%rbp),%rax
  8004203765:	ba 01 00 00 00       	mov    $0x1,%edx
  800420376a:	48 89 ce             	mov    %rcx,%rsi
  800420376d:	48 89 c7             	mov    %rax,%rdi
  8004203770:	48 b8 10 30 20 04 80 	movabs $0x8004203010,%rax
  8004203777:	00 00 00 
  800420377a:	ff d0                	callq  *%rax
  800420377c:	48 89 45 f0          	mov    %rax,-0x10(%rbp)
  8004203780:	48 8b 45 f8          	mov    -0x8(%rbp),%rax
  8004203784:	48 8b 55 90          	mov    -0x70(%rbp),%rdx
  8004203788:	48 01 d0             	add    %rdx,%rax
  800420378b:	48 89 45 e8          	mov    %rax,-0x18(%rbp)
  800420378f:	48 83 7d f0 00       	cmpq   $0x0,-0x10(%rbp)
  8004203794:	74 23                	je     80042037b9 <boot_map_region+0x8f>
  8004203796:	48 8b 45 e8          	mov    -0x18(%rbp),%rax
  800420379a:	48 25 00 f0 ff ff    	and    $0xfffffffffffff000,%rax
  80042037a0:	48 89 c2             	mov    %rax,%rdx
  80042037a3:	8b 45 8c             	mov    -0x74(%rbp),%eax
  80042037a6:	48 98                	cltq   
  80042037a8:	48 09 d0             	or     %rdx,%rax
  80042037ab:	48 83 c8 01          	or     $0x1,%rax
  80042037af:	48 89 c2             	mov    %rax,%rdx
  80042037b2:	48 8b 45 f0          	mov    -0x10(%rbp),%rax
  80042037b6:	48 89 10             	mov    %rdx,(%rax)
  80042037b9:	48 8b 45 f8          	mov    -0x8(%rbp),%rax
  80042037bd:	48 8b 55 a0          	mov    -0x60(%rbp),%rdx
  80042037c1:	48 01 d0             	add    %rdx,%rax
  80042037c4:	48 c1 e8 27          	shr    $0x27,%rax
  80042037c8:	25 ff 01 00 00       	and    $0x1ff,%eax
  80042037cd:	48 8d 14 c5 00 00 00 	lea    0x0(,%rax,8),%rdx
  80042037d4:	00 
  80042037d5:	48 8b 45 a8          	mov    -0x58(%rbp),%rax
  80042037d9:	48 01 d0             	add    %rdx,%rax
  80042037dc:	48 8b 55 f8          	mov    -0x8(%rbp),%rdx
  80042037e0:	48 8b 4d a0          	mov    -0x60(%rbp),%rcx
  80042037e4:	48 01 ca             	add    %rcx,%rdx
  80042037e7:	48 c1 ea 27          	shr    $0x27,%rdx
  80042037eb:	81 e2 ff 01 00 00    	and    $0x1ff,%edx
  80042037f1:	48 8d 0c d5 00 00 00 	lea    0x0(,%rdx,8),%rcx
  80042037f8:	00 
  80042037f9:	48 8b 55 a8          	mov    -0x58(%rbp),%rdx
  80042037fd:	48 01 ca             	add    %rcx,%rdx
  8004203800:	48 8b 0a             	mov    (%rdx),%rcx
  8004203803:	8b 55 8c             	mov    -0x74(%rbp),%edx
  8004203806:	48 63 d2             	movslq %edx,%rdx
  8004203809:	48 09 ca             	or     %rcx,%rdx
  800420380c:	48 83 ca 01          	or     $0x1,%rdx
  8004203810:	48 89 10             	mov    %rdx,(%rax)
  8004203813:	48 8b 45 f8          	mov    -0x8(%rbp),%rax
  8004203817:	48 8b 55 a0          	mov    -0x60(%rbp),%rdx
  800420381b:	48 01 d0             	add    %rdx,%rax
  800420381e:	48 c1 e8 27          	shr    $0x27,%rax
  8004203822:	25 ff 01 00 00       	and    $0x1ff,%eax
  8004203827:	48 8d 14 c5 00 00 00 	lea    0x0(,%rax,8),%rdx
  800420382e:	00 
  800420382f:	48 8b 45 a8          	mov    -0x58(%rbp),%rax
  8004203833:	48 01 d0             	add    %rdx,%rax
  8004203836:	48 8b 00             	mov    (%rax),%rax
  8004203839:	48 25 00 f0 ff ff    	and    $0xfffffffffffff000,%rax
  800420383f:	48 89 45 e0          	mov    %rax,-0x20(%rbp)
  8004203843:	48 8b 45 e0          	mov    -0x20(%rbp),%rax
  8004203847:	48 c1 e8 0c          	shr    $0xc,%rax
  800420384b:	89 45 dc             	mov    %eax,-0x24(%rbp)
  800420384e:	8b 55 dc             	mov    -0x24(%rbp),%edx
  8004203851:	48 b8 f8 d5 6d 04 80 	movabs $0x80046dd5f8,%rax
  8004203858:	00 00 00 
  800420385b:	48 8b 00             	mov    (%rax),%rax
  800420385e:	48 39 c2             	cmp    %rax,%rdx
  8004203861:	72 32                	jb     8004203895 <boot_map_region+0x16b>
  8004203863:	48 8b 45 e0          	mov    -0x20(%rbp),%rax
  8004203867:	48 89 c1             	mov    %rax,%rcx
  800420386a:	48 ba 78 e1 21 04 80 	movabs $0x800421e178,%rdx
  8004203871:	00 00 00 
  8004203874:	be e6 02 00 00       	mov    $0x2e6,%esi
  8004203879:	48 bf 06 e2 21 04 80 	movabs $0x800421e206,%rdi
  8004203880:	00 00 00 
  8004203883:	b8 00 00 00 00       	mov    $0x0,%eax
  8004203888:	49 b8 c9 04 20 04 80 	movabs $0x80042004c9,%r8
  800420388f:	00 00 00 
  8004203892:	41 ff d0             	callq  *%r8
  8004203895:	48 ba 00 00 00 04 80 	movabs $0x8004000000,%rdx
  800420389c:	00 00 00 
  800420389f:	48 8b 45 e0          	mov    -0x20(%rbp),%rax
  80042038a3:	48 01 d0             	add    %rdx,%rax
  80042038a6:	48 89 45 d0          	mov    %rax,-0x30(%rbp)
  80042038aa:	48 8b 45 f8          	mov    -0x8(%rbp),%rax
  80042038ae:	48 8b 55 a0          	mov    -0x60(%rbp),%rdx
  80042038b2:	48 01 d0             	add    %rdx,%rax
  80042038b5:	48 c1 e8 1e          	shr    $0x1e,%rax
  80042038b9:	25 ff 01 00 00       	and    $0x1ff,%eax
  80042038be:	48 8d 14 c5 00 00 00 	lea    0x0(,%rax,8),%rdx
  80042038c5:	00 
  80042038c6:	48 8b 45 d0          	mov    -0x30(%rbp),%rax
  80042038ca:	48 01 d0             	add    %rdx,%rax
  80042038cd:	48 8b 55 f8          	mov    -0x8(%rbp),%rdx
  80042038d1:	48 8b 4d a0          	mov    -0x60(%rbp),%rcx
  80042038d5:	48 01 ca             	add    %rcx,%rdx
  80042038d8:	48 c1 ea 1e          	shr    $0x1e,%rdx
  80042038dc:	81 e2 ff 01 00 00    	and    $0x1ff,%edx
  80042038e2:	48 8d 0c d5 00 00 00 	lea    0x0(,%rdx,8),%rcx
  80042038e9:	00 
  80042038ea:	48 8b 55 d0          	mov    -0x30(%rbp),%rdx
  80042038ee:	48 01 ca             	add    %rcx,%rdx
  80042038f1:	48 8b 0a             	mov    (%rdx),%rcx
  80042038f4:	8b 55 8c             	mov    -0x74(%rbp),%edx
  80042038f7:	48 63 d2             	movslq %edx,%rdx
  80042038fa:	48 09 ca             	or     %rcx,%rdx
  80042038fd:	48 83 ca 01          	or     $0x1,%rdx
  8004203901:	48 89 10             	mov    %rdx,(%rax)
  8004203904:	48 8b 45 f8          	mov    -0x8(%rbp),%rax
  8004203908:	48 8b 55 a0          	mov    -0x60(%rbp),%rdx
  800420390c:	48 01 d0             	add    %rdx,%rax
  800420390f:	48 c1 e8 1e          	shr    $0x1e,%rax
  8004203913:	25 ff 01 00 00       	and    $0x1ff,%eax
  8004203918:	48 8d 14 c5 00 00 00 	lea    0x0(,%rax,8),%rdx
  800420391f:	00 
  8004203920:	48 8b 45 d0          	mov    -0x30(%rbp),%rax
  8004203924:	48 01 d0             	add    %rdx,%rax
  8004203927:	48 8b 00             	mov    (%rax),%rax
  800420392a:	48 25 00 f0 ff ff    	and    $0xfffffffffffff000,%rax
  8004203930:	48 89 45 c8          	mov    %rax,-0x38(%rbp)
  8004203934:	48 8b 45 c8          	mov    -0x38(%rbp),%rax
  8004203938:	48 c1 e8 0c          	shr    $0xc,%rax
  800420393c:	89 45 c4             	mov    %eax,-0x3c(%rbp)
  800420393f:	8b 55 c4             	mov    -0x3c(%rbp),%edx
  8004203942:	48 b8 f8 d5 6d 04 80 	movabs $0x80046dd5f8,%rax
  8004203949:	00 00 00 
  800420394c:	48 8b 00             	mov    (%rax),%rax
  800420394f:	48 39 c2             	cmp    %rax,%rdx
  8004203952:	72 32                	jb     8004203986 <boot_map_region+0x25c>
  8004203954:	48 8b 45 c8          	mov    -0x38(%rbp),%rax
  8004203958:	48 89 c1             	mov    %rax,%rcx
  800420395b:	48 ba 78 e1 21 04 80 	movabs $0x800421e178,%rdx
  8004203962:	00 00 00 
  8004203965:	be e8 02 00 00       	mov    $0x2e8,%esi
  800420396a:	48 bf 06 e2 21 04 80 	movabs $0x800421e206,%rdi
  8004203971:	00 00 00 
  8004203974:	b8 00 00 00 00       	mov    $0x0,%eax
  8004203979:	49 b8 c9 04 20 04 80 	movabs $0x80042004c9,%r8
  8004203980:	00 00 00 
  8004203983:	41 ff d0             	callq  *%r8
  8004203986:	48 ba 00 00 00 04 80 	movabs $0x8004000000,%rdx
  800420398d:	00 00 00 
  8004203990:	48 8b 45 c8          	mov    -0x38(%rbp),%rax
  8004203994:	48 01 d0             	add    %rdx,%rax
  8004203997:	48 89 45 b8          	mov    %rax,-0x48(%rbp)
  800420399b:	48 8b 45 f8          	mov    -0x8(%rbp),%rax
  800420399f:	48 8b 55 a0          	mov    -0x60(%rbp),%rdx
  80042039a3:	48 01 d0             	add    %rdx,%rax
  80042039a6:	48 c1 e8 15          	shr    $0x15,%rax
  80042039aa:	25 ff 01 00 00       	and    $0x1ff,%eax
  80042039af:	48 8d 14 c5 00 00 00 	lea    0x0(,%rax,8),%rdx
  80042039b6:	00 
  80042039b7:	48 8b 45 b8          	mov    -0x48(%rbp),%rax
  80042039bb:	48 01 d0             	add    %rdx,%rax
  80042039be:	48 8b 55 f8          	mov    -0x8(%rbp),%rdx
  80042039c2:	48 8b 4d a0          	mov    -0x60(%rbp),%rcx
  80042039c6:	48 01 ca             	add    %rcx,%rdx
  80042039c9:	48 c1 ea 15          	shr    $0x15,%rdx
  80042039cd:	81 e2 ff 01 00 00    	and    $0x1ff,%edx
  80042039d3:	48 8d 0c d5 00 00 00 	lea    0x0(,%rdx,8),%rcx
  80042039da:	00 
  80042039db:	48 8b 55 b8          	mov    -0x48(%rbp),%rdx
  80042039df:	48 01 ca             	add    %rcx,%rdx
  80042039e2:	48 8b 0a             	mov    (%rdx),%rcx
  80042039e5:	8b 55 8c             	mov    -0x74(%rbp),%edx
  80042039e8:	48 63 d2             	movslq %edx,%rdx
  80042039eb:	48 09 ca             	or     %rcx,%rdx
  80042039ee:	48 83 ca 01          	or     $0x1,%rdx
  80042039f2:	48 89 10             	mov    %rdx,(%rax)
  80042039f5:	48 81 45 f8 00 10 00 	addq   $0x1000,-0x8(%rbp)
  80042039fc:	00 
  80042039fd:	48 8b 45 f8          	mov    -0x8(%rbp),%rax
  8004203a01:	48 3b 45 98          	cmp    -0x68(%rbp),%rax
  8004203a05:	0f 82 48 fd ff ff    	jb     8004203753 <boot_map_region+0x29>
  8004203a0b:	c9                   	leaveq 
  8004203a0c:	c3                   	retq   

0000008004203a0d <page_insert>:
  8004203a0d:	55                   	push   %rbp
  8004203a0e:	48 89 e5             	mov    %rsp,%rbp
  8004203a11:	48 83 ec 60          	sub    $0x60,%rsp
  8004203a15:	48 89 7d b8          	mov    %rdi,-0x48(%rbp)
  8004203a19:	48 89 75 b0          	mov    %rsi,-0x50(%rbp)
  8004203a1d:	48 89 55 a8          	mov    %rdx,-0x58(%rbp)
  8004203a21:	89 4d a4             	mov    %ecx,-0x5c(%rbp)
  8004203a24:	48 83 7d b8 00       	cmpq   $0x0,-0x48(%rbp)
  8004203a29:	0f 84 47 03 00 00    	je     8004203d76 <page_insert+0x369>
  8004203a2f:	48 83 7d b0 00       	cmpq   $0x0,-0x50(%rbp)
  8004203a34:	0f 84 3c 03 00 00    	je     8004203d76 <page_insert+0x369>
  8004203a3a:	48 8b 4d a8          	mov    -0x58(%rbp),%rcx
  8004203a3e:	48 8b 45 b8          	mov    -0x48(%rbp),%rax
  8004203a42:	ba 01 00 00 00       	mov    $0x1,%edx
  8004203a47:	48 89 ce             	mov    %rcx,%rsi
